
openbeacon-send-pack.elf:     file format elf32-littlearm

Disassembly of section startup:

00100000 <start>:
  100000:	ea00000f 	b	100044 <_reset>
  100004:	e59ff014 	ldr	pc, [pc, #20]	; 100020 <_undf>
  100008:	e59ff014 	ldr	pc, [pc, #20]	; 100024 <_swi>
  10000c:	e59ff014 	ldr	pc, [pc, #20]	; 100028 <_pabt>
  100010:	e59ff014 	ldr	pc, [pc, #20]	; 10002c <_dabt>
  100014:	e1a00000 	nop			(mov r0,r0)
  100018:	e51fff20 	ldr	pc, [pc, #-3872]	; ff100 <IRQ_STACK_SIZE+0xfed00>
  10001c:	e59ff00c 	ldr	pc, [pc, #12]	; 100030 <_fiq>

00100020 <_undf>:
  100020:	00100034 	andeqs	r0, r0, r4, lsr r0

00100024 <_swi>:
  100024:	0010b808 	andeqs	fp, r0, r8, lsl #16

00100028 <_pabt>:
  100028:	00100038 	andeqs	r0, r0, r8, lsr r0

0010002c <_dabt>:
  10002c:	0010003c 	andeqs	r0, r0, ip, lsr r0

00100030 <_fiq>:
  100030:	00100040 	andeqs	r0, r0, r0, asr #32

00100034 <__undf>:
  100034:	eafffffe 	b	100034 <__undf>

00100038 <__pabt>:
  100038:	eafffffe 	b	100038 <__pabt>

0010003c <__dabt>:
  10003c:	eafffffe 	b	10003c <__dabt>

00100040 <__fiq>:
  100040:	eafffffe 	b	100040 <__fiq>
Disassembly of section prog:

00100044 <_reset>:
  100044:	e59f00c0 	ldr	r0, [pc, #192]	; 10010c <prog+0xc8>
  100048:	e321f0db 	msr	CPSR_c, #219	; 0xdb
  10004c:	e1a0d000 	mov	sp, r0
  100050:	e2400004 	sub	r0, r0, #4	; 0x4
  100054:	e321f0d7 	msr	CPSR_c, #215	; 0xd7
  100058:	e1a0d000 	mov	sp, r0
  10005c:	e2400004 	sub	r0, r0, #4	; 0x4
  100060:	e321f0d1 	msr	CPSR_c, #209	; 0xd1
  100064:	e1a0d000 	mov	sp, r0
  100068:	e2400004 	sub	r0, r0, #4	; 0x4
  10006c:	e321f0d2 	msr	CPSR_c, #210	; 0xd2
  100070:	e1a0d000 	mov	sp, r0
  100074:	e2400b01 	sub	r0, r0, #1024	; 0x400
  100078:	e321f0d3 	msr	CPSR_c, #211	; 0xd3
  10007c:	e1a0d000 	mov	sp, r0
  100080:	e2400b01 	sub	r0, r0, #1024	; 0x400
  100084:	e321f0df 	msr	CPSR_c, #223	; 0xdf
  100088:	e1a0d000 	mov	sp, r0
  10008c:	e321f0d3 	msr	CPSR_c, #211	; 0xd3
  100090:	eb002816 	bl	10a0f0 <AT91F_LowLevelInit>
  100094:	e3a01000 	mov	r1, #0	; 0x0
  100098:	e1a0b001 	mov	fp, r1
  10009c:	e1a07001 	mov	r7, r1
  1000a0:	e59f1050 	ldr	r1, [pc, #80]	; 1000f8 <prog+0xb4>
  1000a4:	e59f3050 	ldr	r3, [pc, #80]	; 1000fc <prog+0xb8>
  1000a8:	e0533001 	subs	r3, r3, r1
  1000ac:	0a000003 	beq	1000c0 <.end_clear_loop>
  1000b0:	e3a02000 	mov	r2, #0	; 0x0

001000b4 <.clear_loop>:
  1000b4:	e4c12001 	strb	r2, [r1], #1
  1000b8:	e2533001 	subs	r3, r3, #1	; 0x1
  1000bc:	cafffffc 	bgt	1000b4 <.clear_loop>

001000c0 <.end_clear_loop>:
  1000c0:	e59f1038 	ldr	r1, [pc, #56]	; 100100 <prog+0xbc>
  1000c4:	e59f2038 	ldr	r2, [pc, #56]	; 100104 <prog+0xc0>
  1000c8:	e59f3038 	ldr	r3, [pc, #56]	; 100108 <prog+0xc4>
  1000cc:	e0533001 	subs	r3, r3, r1
  1000d0:	0a000003 	beq	1000e4 <.end_set_loop>

001000d4 <.set_loop>:
  1000d4:	e4d24001 	ldrb	r4, [r2], #1
  1000d8:	e4c14001 	strb	r4, [r1], #1
  1000dc:	e2533001 	subs	r3, r3, #1	; 0x1
  1000e0:	cafffffb 	bgt	1000d4 <.set_loop>

001000e4 <.end_set_loop>:
  1000e4:	e3a00000 	mov	r0, #0	; 0x0
  1000e8:	e3a01000 	mov	r1, #0	; 0x0
  1000ec:	e59fe01c 	ldr	lr, [pc, #28]	; 100110 <prog+0xcc>
  1000f0:	e12fff1e 	bx	lr

001000f4 <endless_loop>:
  1000f4:	eafffffe 	b	1000f4 <endless_loop>
  1000f8:	00200b88 	eoreq	r0, r0, r8, lsl #23
  1000fc:	002019d8 	ldreqd	r1, [r0], -r8
  100100:	00200000 	eoreq	r0, r0, r0
  100104:	0010cfa0 	andeqs	ip, r0, r0, lsr #31
  100108:	00200b88 	eoreq	r0, r0, r8, lsl #23
  10010c:	00203ffc 	streqd	r3, [r0], -ip
  100110:	00108de0 	andeqs	r8, r0, r0, ror #27

00100114 <__aeabi_uidiv>:
  100114:	e2512001 	subs	r2, r1, #1	; 0x1
  100118:	012fff1e 	bxeq	lr
  10011c:	3a000036 	bcc	1001fc <__aeabi_uidiv+0xe8>
  100120:	e1500001 	cmp	r0, r1
  100124:	9a000022 	bls	1001b4 <__aeabi_uidiv+0xa0>
  100128:	e1110002 	tst	r1, r2
  10012c:	0a000023 	beq	1001c0 <__aeabi_uidiv+0xac>
  100130:	e311020e 	tst	r1, #-536870912	; 0xe0000000
  100134:	01a01181 	moveq	r1, r1, lsl #3
  100138:	03a03008 	moveq	r3, #8	; 0x8
  10013c:	13a03001 	movne	r3, #1	; 0x1
  100140:	e3510201 	cmp	r1, #268435456	; 0x10000000
  100144:	31510000 	cmpcc	r1, r0
  100148:	31a01201 	movcc	r1, r1, lsl #4
  10014c:	31a03203 	movcc	r3, r3, lsl #4
  100150:	3afffffa 	bcc	100140 <__aeabi_uidiv+0x2c>
  100154:	e3510102 	cmp	r1, #-2147483648	; 0x80000000
  100158:	31510000 	cmpcc	r1, r0
  10015c:	31a01081 	movcc	r1, r1, lsl #1
  100160:	31a03083 	movcc	r3, r3, lsl #1
  100164:	3afffffa 	bcc	100154 <__aeabi_uidiv+0x40>
  100168:	e3a02000 	mov	r2, #0	; 0x0
  10016c:	e1500001 	cmp	r0, r1
  100170:	20400001 	subcs	r0, r0, r1
  100174:	21822003 	orrcs	r2, r2, r3
  100178:	e15000a1 	cmp	r0, r1, lsr #1
  10017c:	204000a1 	subcs	r0, r0, r1, lsr #1
  100180:	218220a3 	orrcs	r2, r2, r3, lsr #1
  100184:	e1500121 	cmp	r0, r1, lsr #2
  100188:	20400121 	subcs	r0, r0, r1, lsr #2
  10018c:	21822123 	orrcs	r2, r2, r3, lsr #2
  100190:	e15001a1 	cmp	r0, r1, lsr #3
  100194:	204001a1 	subcs	r0, r0, r1, lsr #3
  100198:	218221a3 	orrcs	r2, r2, r3, lsr #3
  10019c:	e3500000 	cmp	r0, #0	; 0x0
  1001a0:	11b03223 	movnes	r3, r3, lsr #4
  1001a4:	11a01221 	movne	r1, r1, lsr #4
  1001a8:	1affffef 	bne	10016c <__aeabi_uidiv+0x58>
  1001ac:	e1a00002 	mov	r0, r2
  1001b0:	e12fff1e 	bx	lr
  1001b4:	03a00001 	moveq	r0, #1	; 0x1
  1001b8:	13a00000 	movne	r0, #0	; 0x0
  1001bc:	e12fff1e 	bx	lr
  1001c0:	e3510801 	cmp	r1, #65536	; 0x10000
  1001c4:	21a01821 	movcs	r1, r1, lsr #16
  1001c8:	23a02010 	movcs	r2, #16	; 0x10
  1001cc:	33a02000 	movcc	r2, #0	; 0x0
  1001d0:	e3510c01 	cmp	r1, #256	; 0x100
  1001d4:	21a01421 	movcs	r1, r1, lsr #8
  1001d8:	22822008 	addcs	r2, r2, #8	; 0x8
  1001dc:	e3510010 	cmp	r1, #16	; 0x10
  1001e0:	21a01221 	movcs	r1, r1, lsr #4
  1001e4:	22822004 	addcs	r2, r2, #4	; 0x4
  1001e8:	e3510004 	cmp	r1, #4	; 0x4
  1001ec:	82822003 	addhi	r2, r2, #3	; 0x3
  1001f0:	908220a1 	addls	r2, r2, r1, lsr #1
  1001f4:	e1a00230 	mov	r0, r0, lsr r2
  1001f8:	e12fff1e 	bx	lr
  1001fc:	e52de008 	str	lr, [sp, #-8]!
  100200:	eb00008a 	bl	100430 <__aeabi_idiv0>
  100204:	e3a00000 	mov	r0, #0	; 0x0
  100208:	e49df008 	ldr	pc, [sp], #8

0010020c <__aeabi_uidivmod>:
  10020c:	e92d4003 	stmdb	sp!, {r0, r1, lr}
  100210:	ebffffbf 	bl	100114 <__aeabi_uidiv>
  100214:	e8bd4006 	ldmia	sp!, {r1, r2, lr}
  100218:	e0030092 	mul	r3, r2, r0
  10021c:	e0411003 	sub	r1, r1, r3
  100220:	e12fff1e 	bx	lr

00100224 <__aeabi_idiv>:
  100224:	e3510000 	cmp	r1, #0	; 0x0
  100228:	e020c001 	eor	ip, r0, r1
  10022c:	0a000042 	beq	10033c <__aeabi_idiv+0x118>
  100230:	42611000 	rsbmi	r1, r1, #0	; 0x0
  100234:	e2512001 	subs	r2, r1, #1	; 0x1
  100238:	0a000027 	beq	1002dc <__aeabi_idiv+0xb8>
  10023c:	e1b03000 	movs	r3, r0
  100240:	42603000 	rsbmi	r3, r0, #0	; 0x0
  100244:	e1530001 	cmp	r3, r1
  100248:	9a000026 	bls	1002e8 <__aeabi_idiv+0xc4>
  10024c:	e1110002 	tst	r1, r2
  100250:	0a000028 	beq	1002f8 <__aeabi_idiv+0xd4>
  100254:	e311020e 	tst	r1, #-536870912	; 0xe0000000
  100258:	01a01181 	moveq	r1, r1, lsl #3
  10025c:	03a02008 	moveq	r2, #8	; 0x8
  100260:	13a02001 	movne	r2, #1	; 0x1
  100264:	e3510201 	cmp	r1, #268435456	; 0x10000000
  100268:	31510003 	cmpcc	r1, r3
  10026c:	31a01201 	movcc	r1, r1, lsl #4
  100270:	31a02202 	movcc	r2, r2, lsl #4
  100274:	3afffffa 	bcc	100264 <__aeabi_idiv+0x40>
  100278:	e3510102 	cmp	r1, #-2147483648	; 0x80000000
  10027c:	31510003 	cmpcc	r1, r3
  100280:	31a01081 	movcc	r1, r1, lsl #1
  100284:	31a02082 	movcc	r2, r2, lsl #1
  100288:	3afffffa 	bcc	100278 <__aeabi_idiv+0x54>
  10028c:	e3a00000 	mov	r0, #0	; 0x0
  100290:	e1530001 	cmp	r3, r1
  100294:	20433001 	subcs	r3, r3, r1
  100298:	21800002 	orrcs	r0, r0, r2
  10029c:	e15300a1 	cmp	r3, r1, lsr #1
  1002a0:	204330a1 	subcs	r3, r3, r1, lsr #1
  1002a4:	218000a2 	orrcs	r0, r0, r2, lsr #1
  1002a8:	e1530121 	cmp	r3, r1, lsr #2
  1002ac:	20433121 	subcs	r3, r3, r1, lsr #2
  1002b0:	21800122 	orrcs	r0, r0, r2, lsr #2
  1002b4:	e15301a1 	cmp	r3, r1, lsr #3
  1002b8:	204331a1 	subcs	r3, r3, r1, lsr #3
  1002bc:	218001a2 	orrcs	r0, r0, r2, lsr #3
  1002c0:	e3530000 	cmp	r3, #0	; 0x0
  1002c4:	11b02222 	movnes	r2, r2, lsr #4
  1002c8:	11a01221 	movne	r1, r1, lsr #4
  1002cc:	1affffef 	bne	100290 <__aeabi_idiv+0x6c>
  1002d0:	e35c0000 	cmp	ip, #0	; 0x0
  1002d4:	42600000 	rsbmi	r0, r0, #0	; 0x0
  1002d8:	e12fff1e 	bx	lr
  1002dc:	e13c0000 	teq	ip, r0
  1002e0:	42600000 	rsbmi	r0, r0, #0	; 0x0
  1002e4:	e12fff1e 	bx	lr
  1002e8:	33a00000 	movcc	r0, #0	; 0x0
  1002ec:	01a00fcc 	moveq	r0, ip, asr #31
  1002f0:	03800001 	orreq	r0, r0, #1	; 0x1
  1002f4:	e12fff1e 	bx	lr
  1002f8:	e3510801 	cmp	r1, #65536	; 0x10000
  1002fc:	21a01821 	movcs	r1, r1, lsr #16
  100300:	23a02010 	movcs	r2, #16	; 0x10
  100304:	33a02000 	movcc	r2, #0	; 0x0
  100308:	e3510c01 	cmp	r1, #256	; 0x100
  10030c:	21a01421 	movcs	r1, r1, lsr #8
  100310:	22822008 	addcs	r2, r2, #8	; 0x8
  100314:	e3510010 	cmp	r1, #16	; 0x10
  100318:	21a01221 	movcs	r1, r1, lsr #4
  10031c:	22822004 	addcs	r2, r2, #4	; 0x4
  100320:	e3510004 	cmp	r1, #4	; 0x4
  100324:	82822003 	addhi	r2, r2, #3	; 0x3
  100328:	908220a1 	addls	r2, r2, r1, lsr #1
  10032c:	e35c0000 	cmp	ip, #0	; 0x0
  100330:	e1a00233 	mov	r0, r3, lsr r2
  100334:	42600000 	rsbmi	r0, r0, #0	; 0x0
  100338:	e12fff1e 	bx	lr
  10033c:	e52de008 	str	lr, [sp, #-8]!
  100340:	eb00003a 	bl	100430 <__aeabi_idiv0>
  100344:	e3a00000 	mov	r0, #0	; 0x0
  100348:	e49df008 	ldr	pc, [sp], #8

0010034c <__aeabi_idivmod>:
  10034c:	e92d4003 	stmdb	sp!, {r0, r1, lr}
  100350:	ebffffb3 	bl	100224 <__aeabi_idiv>
  100354:	e8bd4006 	ldmia	sp!, {r1, r2, lr}
  100358:	e0030092 	mul	r3, r2, r0
  10035c:	e0411003 	sub	r1, r1, r3
  100360:	e12fff1e 	bx	lr

00100364 <__umodsi3>:
  100364:	e2512001 	subs	r2, r1, #1	; 0x1
  100368:	3a00002c 	bcc	100420 <__umodsi3+0xbc>
  10036c:	11500001 	cmpne	r0, r1
  100370:	03a00000 	moveq	r0, #0	; 0x0
  100374:	81110002 	tsthi	r1, r2
  100378:	00000002 	andeq	r0, r0, r2
  10037c:	912fff1e 	bxls	lr
  100380:	e3a02000 	mov	r2, #0	; 0x0
  100384:	e3510201 	cmp	r1, #268435456	; 0x10000000
  100388:	31510000 	cmpcc	r1, r0
  10038c:	31a01201 	movcc	r1, r1, lsl #4
  100390:	32822004 	addcc	r2, r2, #4	; 0x4
  100394:	3afffffa 	bcc	100384 <__umodsi3+0x20>
  100398:	e3510102 	cmp	r1, #-2147483648	; 0x80000000
  10039c:	31510000 	cmpcc	r1, r0
  1003a0:	31a01081 	movcc	r1, r1, lsl #1
  1003a4:	32822001 	addcc	r2, r2, #1	; 0x1
  1003a8:	3afffffa 	bcc	100398 <__umodsi3+0x34>
  1003ac:	e2522003 	subs	r2, r2, #3	; 0x3
  1003b0:	ba00000e 	blt	1003f0 <__umodsi3+0x8c>
  1003b4:	e1500001 	cmp	r0, r1
  1003b8:	20400001 	subcs	r0, r0, r1
  1003bc:	e15000a1 	cmp	r0, r1, lsr #1
  1003c0:	204000a1 	subcs	r0, r0, r1, lsr #1
  1003c4:	e1500121 	cmp	r0, r1, lsr #2
  1003c8:	20400121 	subcs	r0, r0, r1, lsr #2
  1003cc:	e15001a1 	cmp	r0, r1, lsr #3
  1003d0:	204001a1 	subcs	r0, r0, r1, lsr #3
  1003d4:	e3500001 	cmp	r0, #1	; 0x1
  1003d8:	e1a01221 	mov	r1, r1, lsr #4
  1003dc:	a2522004 	subges	r2, r2, #4	; 0x4
  1003e0:	aafffff3 	bge	1003b4 <__umodsi3+0x50>
  1003e4:	e3120003 	tst	r2, #3	; 0x3
  1003e8:	13300000 	teqne	r0, #0	; 0x0
  1003ec:	0a00000a 	beq	10041c <__umodsi3+0xb8>
  1003f0:	e3720002 	cmn	r2, #2	; 0x2
  1003f4:	ba000006 	blt	100414 <__umodsi3+0xb0>
  1003f8:	0a000002 	beq	100408 <__umodsi3+0xa4>
  1003fc:	e1500001 	cmp	r0, r1
  100400:	20400001 	subcs	r0, r0, r1
  100404:	e1a010a1 	mov	r1, r1, lsr #1
  100408:	e1500001 	cmp	r0, r1
  10040c:	20400001 	subcs	r0, r0, r1
  100410:	e1a010a1 	mov	r1, r1, lsr #1
  100414:	e1500001 	cmp	r0, r1
  100418:	20400001 	subcs	r0, r0, r1
  10041c:	e12fff1e 	bx	lr
  100420:	e52de008 	str	lr, [sp, #-8]!
  100424:	eb000001 	bl	100430 <__aeabi_idiv0>
  100428:	e3a00000 	mov	r0, #0	; 0x0
  10042c:	e49df008 	ldr	pc, [sp], #8

00100430 <__aeabi_idiv0>:
  100430:	e12fff1e 	bx	lr

00100434 <free>:
  100434:	e59f3008 	ldr	r3, [pc, #8]	; 100444 <prog+0x400>
  100438:	e1a01000 	mov	r1, r0
  10043c:	e5930000 	ldr	r0, [r3]
  100440:	ea001321 	b	1050cc <_free_r>
  100444:	00200410 	eoreq	r0, r0, r0, lsl r4

00100448 <malloc>:
  100448:	e59f3008 	ldr	r3, [pc, #8]	; 100458 <prog+0x414>
  10044c:	e1a01000 	mov	r1, r0
  100450:	e5930000 	ldr	r0, [r3]
  100454:	ea000000 	b	10045c <_malloc_r>
  100458:	00200410 	eoreq	r0, r0, r0, lsl r4

0010045c <_malloc_r>:
  10045c:	e281300b 	add	r3, r1, #11	; 0xb
  100460:	e3530016 	cmp	r3, #22	; 0x16
  100464:	e92d4ff0 	stmdb	sp!, {r4, r5, r6, r7, r8, r9, sl, fp, lr}
  100468:	83c35007 	bichi	r5, r3, #7	; 0x7
  10046c:	93a05010 	movls	r5, #16	; 0x10
  100470:	93a03000 	movls	r3, #0	; 0x0
  100474:	81a03fa5 	movhi	r3, r5, lsr #31
  100478:	e1550001 	cmp	r5, r1
  10047c:	33833001 	orrcc	r3, r3, #1	; 0x1
  100480:	e3530000 	cmp	r3, #0	; 0x0
  100484:	e1a07000 	mov	r7, r0
  100488:	13a0300c 	movne	r3, #12	; 0xc
  10048c:	e24dd004 	sub	sp, sp, #4	; 0x4
  100490:	13a00000 	movne	r0, #0	; 0x0
  100494:	15873000 	strne	r3, [r7]
  100498:	1a000017 	bne	1004fc <_malloc_r+0xa0>
  10049c:	e1a00007 	mov	r0, r7
  1004a0:	eb000217 	bl	100d04 <__malloc_lock>
  1004a4:	e3550f7e 	cmp	r5, #504	; 0x1f8
  1004a8:	2a000015 	bcs	100504 <_malloc_r+0xa8>
  1004ac:	e59f86fc 	ldr	r8, [pc, #1788]	; 100bb0 <prog+0xb6c>
  1004b0:	e1a021a5 	mov	r2, r5, lsr #3
  1004b4:	e0883182 	add	r3, r8, r2, lsl #3
  1004b8:	e593400c 	ldr	r4, [r3, #12]
  1004bc:	e1530004 	cmp	r3, r4
  1004c0:	e1a0a008 	mov	sl, r8
  1004c4:	0a0000cd 	beq	100800 <_malloc_r+0x3a4>
  1004c8:	e5943004 	ldr	r3, [r4, #4]
  1004cc:	e3c33003 	bic	r3, r3, #3	; 0x3
  1004d0:	e0843003 	add	r3, r4, r3
  1004d4:	e5932004 	ldr	r2, [r3, #4]
  1004d8:	e594000c 	ldr	r0, [r4, #12]
  1004dc:	e5941008 	ldr	r1, [r4, #8]
  1004e0:	e3822001 	orr	r2, r2, #1	; 0x1
  1004e4:	e5801008 	str	r1, [r0, #8]
  1004e8:	e581000c 	str	r0, [r1, #12]
  1004ec:	e5832004 	str	r2, [r3, #4]
  1004f0:	e1a00007 	mov	r0, r7
  1004f4:	eb000203 	bl	100d08 <__malloc_unlock>
  1004f8:	e2840008 	add	r0, r4, #8	; 0x8
  1004fc:	e28dd004 	add	sp, sp, #4	; 0x4
  100500:	e8bd8ff0 	ldmia	sp!, {r4, r5, r6, r7, r8, r9, sl, fp, pc}
  100504:	e1b024a5 	movs	r2, r5, lsr #9
  100508:	01a001a5 	moveq	r0, r5, lsr #3
  10050c:	01a03180 	moveq	r3, r0, lsl #3
  100510:	1a000027 	bne	1005b4 <_malloc_r+0x158>
  100514:	e59f8694 	ldr	r8, [pc, #1684]	; 100bb0 <prog+0xb6c>
  100518:	e0831008 	add	r1, r3, r8
  10051c:	e591400c 	ldr	r4, [r1, #12]
  100520:	e1510004 	cmp	r1, r4
  100524:	e1a0a008 	mov	sl, r8
  100528:	1a000005 	bne	100544 <_malloc_r+0xe8>
  10052c:	ea00000a 	b	10055c <_malloc_r+0x100>
  100530:	e3520000 	cmp	r2, #0	; 0x0
  100534:	aa000047 	bge	100658 <_malloc_r+0x1fc>
  100538:	e594400c 	ldr	r4, [r4, #12]
  10053c:	e1510004 	cmp	r1, r4
  100540:	0a000005 	beq	10055c <_malloc_r+0x100>
  100544:	e5943004 	ldr	r3, [r4, #4]
  100548:	e3c33003 	bic	r3, r3, #3	; 0x3
  10054c:	e0652003 	rsb	r2, r5, r3
  100550:	e352000f 	cmp	r2, #15	; 0xf
  100554:	dafffff5 	ble	100530 <_malloc_r+0xd4>
  100558:	e2400001 	sub	r0, r0, #1	; 0x1
  10055c:	e280e001 	add	lr, r0, #1	; 0x1
  100560:	e59f664c 	ldr	r6, [pc, #1612]	; 100bb4 <prog+0xb70>
  100564:	e5964008 	ldr	r4, [r6, #8]
  100568:	e1560004 	cmp	r6, r4
  10056c:	0a000076 	beq	10074c <_malloc_r+0x2f0>
  100570:	e5943004 	ldr	r3, [r4, #4]
  100574:	e3c32003 	bic	r2, r3, #3	; 0x3
  100578:	e0650002 	rsb	r0, r5, r2
  10057c:	e350000f 	cmp	r0, #15	; 0xf
  100580:	ca000027 	bgt	100624 <_malloc_r+0x1c8>
  100584:	e3500000 	cmp	r0, #0	; 0x0
  100588:	e586600c 	str	r6, [r6, #12]
  10058c:	e5866008 	str	r6, [r6, #8]
  100590:	ba00003c 	blt	100688 <_malloc_r+0x22c>
  100594:	e0842002 	add	r2, r4, r2
  100598:	e5923004 	ldr	r3, [r2, #4]
  10059c:	e3833001 	orr	r3, r3, #1	; 0x1
  1005a0:	e1a00007 	mov	r0, r7
  1005a4:	e5823004 	str	r3, [r2, #4]
  1005a8:	eb0001d6 	bl	100d08 <__malloc_unlock>
  1005ac:	e2840008 	add	r0, r4, #8	; 0x8
  1005b0:	eaffffd1 	b	1004fc <_malloc_r+0xa0>
  1005b4:	e3520004 	cmp	r2, #4	; 0x4
  1005b8:	91a03325 	movls	r3, r5, lsr #6
  1005bc:	92830038 	addls	r0, r3, #56	; 0x38
  1005c0:	91a03180 	movls	r3, r0, lsl #3
  1005c4:	9affffd2 	bls	100514 <_malloc_r+0xb8>
  1005c8:	e3520014 	cmp	r2, #20	; 0x14
  1005cc:	9282005b 	addls	r0, r2, #91	; 0x5b
  1005d0:	91a03180 	movls	r3, r0, lsl #3
  1005d4:	9affffce 	bls	100514 <_malloc_r+0xb8>
  1005d8:	e3520054 	cmp	r2, #84	; 0x54
  1005dc:	91a03625 	movls	r3, r5, lsr #12
  1005e0:	9283006e 	addls	r0, r3, #110	; 0x6e
  1005e4:	91a03180 	movls	r3, r0, lsl #3
  1005e8:	9affffc9 	bls	100514 <_malloc_r+0xb8>
  1005ec:	e3520f55 	cmp	r2, #340	; 0x154
  1005f0:	91a037a5 	movls	r3, r5, lsr #15
  1005f4:	92830077 	addls	r0, r3, #119	; 0x77
  1005f8:	91a03180 	movls	r3, r0, lsl #3
  1005fc:	9affffc4 	bls	100514 <_malloc_r+0xb8>
  100600:	e3a03e55 	mov	r3, #1360	; 0x550
  100604:	e2833004 	add	r3, r3, #4	; 0x4
  100608:	e1520003 	cmp	r2, r3
  10060c:	91a03925 	movls	r3, r5, lsr #18
  100610:	9283007c 	addls	r0, r3, #124	; 0x7c
  100614:	83a0007e 	movhi	r0, #126	; 0x7e
  100618:	82433f59 	subhi	r3, r3, #356	; 0x164
  10061c:	91a03180 	movls	r3, r0, lsl #3
  100620:	eaffffbb 	b	100514 <_malloc_r+0xb8>
  100624:	e0842005 	add	r2, r4, r5
  100628:	e3801001 	orr	r1, r0, #1	; 0x1
  10062c:	e3853001 	orr	r3, r5, #1	; 0x1
  100630:	e7820000 	str	r0, [r2, r0]
  100634:	e5843004 	str	r3, [r4, #4]
  100638:	e586200c 	str	r2, [r6, #12]
  10063c:	e5862008 	str	r2, [r6, #8]
  100640:	e1a00007 	mov	r0, r7
  100644:	e9820042 	stmib	r2, {r1, r6}
  100648:	e582600c 	str	r6, [r2, #12]
  10064c:	eb0001ad 	bl	100d08 <__malloc_unlock>
  100650:	e2840008 	add	r0, r4, #8	; 0x8
  100654:	eaffffa8 	b	1004fc <_malloc_r+0xa0>
  100658:	e0840003 	add	r0, r4, r3
  10065c:	e5903004 	ldr	r3, [r0, #4]
  100660:	e594100c 	ldr	r1, [r4, #12]
  100664:	e5942008 	ldr	r2, [r4, #8]
  100668:	e3833001 	orr	r3, r3, #1	; 0x1
  10066c:	e5803004 	str	r3, [r0, #4]
  100670:	e5812008 	str	r2, [r1, #8]
  100674:	e1a00007 	mov	r0, r7
  100678:	e582100c 	str	r1, [r2, #12]
  10067c:	eb0001a1 	bl	100d08 <__malloc_unlock>
  100680:	e2840008 	add	r0, r4, #8	; 0x8
  100684:	eaffff9c 	b	1004fc <_malloc_r+0xa0>
  100688:	e3520c02 	cmp	r2, #512	; 0x200
  10068c:	3a0000a0 	bcc	100914 <_malloc_r+0x4b8>
  100690:	e1b014a2 	movs	r1, r2, lsr #9
  100694:	01a011a2 	moveq	r1, r2, lsr #3
  100698:	01a03181 	moveq	r3, r1, lsl #3
  10069c:	0a00001a 	beq	10070c <_malloc_r+0x2b0>
  1006a0:	e3510004 	cmp	r1, #4	; 0x4
  1006a4:	91a03322 	movls	r3, r2, lsr #6
  1006a8:	92831038 	addls	r1, r3, #56	; 0x38
  1006ac:	91a03181 	movls	r3, r1, lsl #3
  1006b0:	9a000015 	bls	10070c <_malloc_r+0x2b0>
  1006b4:	e3510014 	cmp	r1, #20	; 0x14
  1006b8:	9281105b 	addls	r1, r1, #91	; 0x5b
  1006bc:	91a03181 	movls	r3, r1, lsl #3
  1006c0:	9a000011 	bls	10070c <_malloc_r+0x2b0>
  1006c4:	e3510054 	cmp	r1, #84	; 0x54
  1006c8:	91a03622 	movls	r3, r2, lsr #12
  1006cc:	9283106e 	addls	r1, r3, #110	; 0x6e
  1006d0:	91a03181 	movls	r3, r1, lsl #3
  1006d4:	9a00000c 	bls	10070c <_malloc_r+0x2b0>
  1006d8:	e3510f55 	cmp	r1, #340	; 0x154
  1006dc:	91a037a2 	movls	r3, r2, lsr #15
  1006e0:	92831077 	addls	r1, r3, #119	; 0x77
  1006e4:	91a03181 	movls	r3, r1, lsl #3
  1006e8:	9a000007 	bls	10070c <_malloc_r+0x2b0>
  1006ec:	e3a03e55 	mov	r3, #1360	; 0x550
  1006f0:	e2833004 	add	r3, r3, #4	; 0x4
  1006f4:	e1510003 	cmp	r1, r3
  1006f8:	91a03922 	movls	r3, r2, lsr #18
  1006fc:	9283107c 	addls	r1, r3, #124	; 0x7c
  100700:	83a0107e 	movhi	r1, #126	; 0x7e
  100704:	82433f59 	subhi	r3, r3, #356	; 0x164
  100708:	91a03181 	movls	r3, r1, lsl #3
  10070c:	e088c003 	add	ip, r8, r3
  100710:	e59c0008 	ldr	r0, [ip, #8]
  100714:	e15c0000 	cmp	ip, r0
  100718:	0a0000eb 	beq	100acc <_malloc_r+0x670>
  10071c:	e5903004 	ldr	r3, [r0, #4]
  100720:	e3c33003 	bic	r3, r3, #3	; 0x3
  100724:	e1520003 	cmp	r2, r3
  100728:	2a000002 	bcs	100738 <_malloc_r+0x2dc>
  10072c:	e5900008 	ldr	r0, [r0, #8]
  100730:	e15c0000 	cmp	ip, r0
  100734:	1afffff8 	bne	10071c <_malloc_r+0x2c0>
  100738:	e590c00c 	ldr	ip, [r0, #12]
  10073c:	e584c00c 	str	ip, [r4, #12]
  100740:	e5840008 	str	r0, [r4, #8]
  100744:	e580400c 	str	r4, [r0, #12]
  100748:	e58c4008 	str	r4, [ip, #8]
  10074c:	e59a0004 	ldr	r0, [sl, #4]
  100750:	e35e0000 	cmp	lr, #0	; 0x0
  100754:	e28e3003 	add	r3, lr, #3	; 0x3
  100758:	a1a0300e 	movge	r3, lr
  10075c:	e1a03143 	mov	r3, r3, asr #2
  100760:	e3a02001 	mov	r2, #1	; 0x1
  100764:	e1a02312 	mov	r2, r2, lsl r3
  100768:	e1520000 	cmp	r2, r0
  10076c:	8a000029 	bhi	100818 <_malloc_r+0x3bc>
  100770:	e1120000 	tst	r2, r0
  100774:	0a000073 	beq	100948 <_malloc_r+0x4ec>
  100778:	e088918e 	add	r9, r8, lr, lsl #3
  10077c:	e1a0a00e 	mov	sl, lr
  100780:	e1a01009 	mov	r1, r9
  100784:	e591400c 	ldr	r4, [r1, #12]
  100788:	e1510004 	cmp	r1, r4
  10078c:	1a000005 	bne	1007a8 <_malloc_r+0x34c>
  100790:	ea000076 	b	100970 <_malloc_r+0x514>
  100794:	e35c0000 	cmp	ip, #0	; 0x0
  100798:	aa000079 	bge	100984 <_malloc_r+0x528>
  10079c:	e594400c 	ldr	r4, [r4, #12]
  1007a0:	e1510004 	cmp	r1, r4
  1007a4:	0a000071 	beq	100970 <_malloc_r+0x514>
  1007a8:	e5943004 	ldr	r3, [r4, #4]
  1007ac:	e3c33003 	bic	r3, r3, #3	; 0x3
  1007b0:	e065c003 	rsb	ip, r5, r3
  1007b4:	e35c000f 	cmp	ip, #15	; 0xf
  1007b8:	dafffff5 	ble	100794 <_malloc_r+0x338>
  1007bc:	e3853001 	orr	r3, r5, #1	; 0x1
  1007c0:	e0842005 	add	r2, r4, r5
  1007c4:	e594000c 	ldr	r0, [r4, #12]
  1007c8:	e5843004 	str	r3, [r4, #4]
  1007cc:	e5b41008 	ldr	r1, [r4, #8]!
  1007d0:	e38c3001 	orr	r3, ip, #1	; 0x1
  1007d4:	e5801008 	str	r1, [r0, #8]
  1007d8:	e581000c 	str	r0, [r1, #12]
  1007dc:	e5862008 	str	r2, [r6, #8]
  1007e0:	e586200c 	str	r2, [r6, #12]
  1007e4:	e1a00007 	mov	r0, r7
  1007e8:	e782c00c 	str	ip, [r2, ip]
  1007ec:	e9820048 	stmib	r2, {r3, r6}
  1007f0:	e582600c 	str	r6, [r2, #12]
  1007f4:	eb000143 	bl	100d08 <__malloc_unlock>
  1007f8:	e1a00004 	mov	r0, r4
  1007fc:	eaffff3e 	b	1004fc <_malloc_r+0xa0>
  100800:	e2843008 	add	r3, r4, #8	; 0x8
  100804:	e593400c 	ldr	r4, [r3, #12]
  100808:	e1530004 	cmp	r3, r4
  10080c:	1affff2d 	bne	1004c8 <_malloc_r+0x6c>
  100810:	e282e002 	add	lr, r2, #2	; 0x2
  100814:	eaffff51 	b	100560 <_malloc_r+0x104>
  100818:	e59f2390 	ldr	r2, [pc, #912]	; 100bb0 <prog+0xb6c>
  10081c:	e5924008 	ldr	r4, [r2, #8]
  100820:	e5943004 	ldr	r3, [r4, #4]
  100824:	e3c38003 	bic	r8, r3, #3	; 0x3
  100828:	e0650008 	rsb	r0, r5, r8
  10082c:	e350000f 	cmp	r0, #15	; 0xf
  100830:	c3a03000 	movgt	r3, #0	; 0x0
  100834:	d3a03001 	movle	r3, #1	; 0x1
  100838:	e1550008 	cmp	r5, r8
  10083c:	83833001 	orrhi	r3, r3, #1	; 0x1
  100840:	e3530000 	cmp	r3, #0	; 0x0
  100844:	e1a09004 	mov	r9, r4
  100848:	0a000026 	beq	1008e8 <_malloc_r+0x48c>
  10084c:	e59f3364 	ldr	r3, [pc, #868]	; 100bb8 <prog+0xb74>
  100850:	e59fb364 	ldr	fp, [pc, #868]	; 100bbc <prog+0xb78>
  100854:	e5932000 	ldr	r2, [r3]
  100858:	e59b1000 	ldr	r1, [fp]
  10085c:	e2822010 	add	r2, r2, #16	; 0x10
  100860:	e3710001 	cmn	r1, #1	; 0x1
  100864:	e0856002 	add	r6, r5, r2
  100868:	12863eff 	addne	r3, r6, #4080	; 0xff0
  10086c:	1283300f 	addne	r3, r3, #15	; 0xf
  100870:	13c36eff 	bicne	r6, r3, #4080	; 0xff0
  100874:	13c6600f 	bicne	r6, r6, #15	; 0xf
  100878:	e1a00007 	mov	r0, r7
  10087c:	e1a01006 	mov	r1, r6
  100880:	eb002308 	bl	1094a8 <_sbrk_r>
  100884:	e3700001 	cmn	r0, #1	; 0x1
  100888:	0a00008c 	beq	100ac0 <_malloc_r+0x664>
  10088c:	e0841008 	add	r1, r4, r8
  100890:	e1510000 	cmp	r1, r0
  100894:	e1a0a000 	mov	sl, r0
  100898:	9a000045 	bls	1009b4 <_malloc_r+0x558>
  10089c:	e59f330c 	ldr	r3, [pc, #780]	; 100bb0 <prog+0xb6c>
  1008a0:	e1540003 	cmp	r4, r3
  1008a4:	0a0000a5 	beq	100b40 <_malloc_r+0x6e4>
  1008a8:	e59f3300 	ldr	r3, [pc, #768]	; 100bb0 <prog+0xb6c>
  1008ac:	e5934008 	ldr	r4, [r3, #8]
  1008b0:	e5942004 	ldr	r2, [r4, #4]
  1008b4:	e3c22003 	bic	r2, r2, #3	; 0x3
  1008b8:	e0650002 	rsb	r0, r5, r2
  1008bc:	e350000f 	cmp	r0, #15	; 0xf
  1008c0:	c3a03000 	movgt	r3, #0	; 0x0
  1008c4:	d3a03001 	movle	r3, #1	; 0x1
  1008c8:	e1550002 	cmp	r5, r2
  1008cc:	83833001 	orrhi	r3, r3, #1	; 0x1
  1008d0:	e3530000 	cmp	r3, #0	; 0x0
  1008d4:	0a000003 	beq	1008e8 <_malloc_r+0x48c>
  1008d8:	e1a00007 	mov	r0, r7
  1008dc:	eb000109 	bl	100d08 <__malloc_unlock>
  1008e0:	e3a00000 	mov	r0, #0	; 0x0
  1008e4:	eaffff04 	b	1004fc <_malloc_r+0xa0>
  1008e8:	e0841005 	add	r1, r4, r5
  1008ec:	e3802001 	orr	r2, r0, #1	; 0x1
  1008f0:	e3853001 	orr	r3, r5, #1	; 0x1
  1008f4:	e5843004 	str	r3, [r4, #4]
  1008f8:	e5812004 	str	r2, [r1, #4]
  1008fc:	e59f22ac 	ldr	r2, [pc, #684]	; 100bb0 <prog+0xb6c>
  100900:	e1a00007 	mov	r0, r7
  100904:	e5821008 	str	r1, [r2, #8]
  100908:	eb0000fe 	bl	100d08 <__malloc_unlock>
  10090c:	e2840008 	add	r0, r4, #8	; 0x8
  100910:	eafffef9 	b	1004fc <_malloc_r+0xa0>
  100914:	e1a021a2 	mov	r2, r2, lsr #3
  100918:	e59a0004 	ldr	r0, [sl, #4]
  10091c:	e1a01122 	mov	r1, r2, lsr #2
  100920:	e3a03001 	mov	r3, #1	; 0x1
  100924:	e1800113 	orr	r0, r0, r3, lsl r1
  100928:	e0882182 	add	r2, r8, r2, lsl #3
  10092c:	e5923008 	ldr	r3, [r2, #8]
  100930:	e584200c 	str	r2, [r4, #12]
  100934:	e5843008 	str	r3, [r4, #8]
  100938:	e58a0004 	str	r0, [sl, #4]
  10093c:	e583400c 	str	r4, [r3, #12]
  100940:	e5824008 	str	r4, [r2, #8]
  100944:	eaffff81 	b	100750 <_malloc_r+0x2f4>
  100948:	e1a02082 	mov	r2, r2, lsl #1
  10094c:	e3ce3003 	bic	r3, lr, #3	; 0x3
  100950:	e1100002 	tst	r0, r2
  100954:	e283e004 	add	lr, r3, #4	; 0x4
  100958:	1affff86 	bne	100778 <_malloc_r+0x31c>
  10095c:	e1a02082 	mov	r2, r2, lsl #1
  100960:	e1100002 	tst	r0, r2
  100964:	e28ee004 	add	lr, lr, #4	; 0x4
  100968:	0afffffb 	beq	10095c <_malloc_r+0x500>
  10096c:	eaffff81 	b	100778 <_malloc_r+0x31c>
  100970:	e28aa001 	add	sl, sl, #1	; 0x1
  100974:	e31a0003 	tst	sl, #3	; 0x3
  100978:	0a000059 	beq	100ae4 <_malloc_r+0x688>
  10097c:	e2811008 	add	r1, r1, #8	; 0x8
  100980:	eaffff7f 	b	100784 <_malloc_r+0x328>
  100984:	e0841003 	add	r1, r4, r3
  100988:	e5913004 	ldr	r3, [r1, #4]
  10098c:	e594000c 	ldr	r0, [r4, #12]
  100990:	e5b42008 	ldr	r2, [r4, #8]!
  100994:	e3833001 	orr	r3, r3, #1	; 0x1
  100998:	e5802008 	str	r2, [r0, #8]
  10099c:	e582000c 	str	r0, [r2, #12]
  1009a0:	e5813004 	str	r3, [r1, #4]
  1009a4:	e1a00007 	mov	r0, r7
  1009a8:	eb0000d6 	bl	100d08 <__malloc_unlock>
  1009ac:	e1a00004 	mov	r0, r4
  1009b0:	eafffed1 	b	1004fc <_malloc_r+0xa0>
  1009b4:	e59fc204 	ldr	ip, [pc, #516]	; 100bc0 <prog+0xb7c>
  1009b8:	e59c3000 	ldr	r3, [ip]
  1009bc:	e0862003 	add	r2, r6, r3
  1009c0:	e58c2000 	str	r2, [ip]
  1009c4:	0a000062 	beq	100b54 <_malloc_r+0x6f8>
  1009c8:	e59b3000 	ldr	r3, [fp]
  1009cc:	e3730001 	cmn	r3, #1	; 0x1
  1009d0:	10613000 	rsbne	r3, r1, r0
  1009d4:	059f31e0 	ldreq	r3, [pc, #480]	; 100bbc <prog+0xb78>
  1009d8:	10823003 	addne	r3, r2, r3
  1009dc:	05830000 	streq	r0, [r3]
  1009e0:	158c3000 	strne	r3, [ip]
  1009e4:	e2103007 	ands	r3, r0, #7	; 0x7
  1009e8:	12631008 	rsbne	r1, r3, #8	; 0x8
  1009ec:	1080a001 	addne	sl, r0, r1
  1009f0:	01a01003 	moveq	r1, r3
  1009f4:	e08a3006 	add	r3, sl, r6
  1009f8:	e1a03a03 	mov	r3, r3, lsl #20
  1009fc:	e1a03a23 	mov	r3, r3, lsr #20
  100a00:	e2633a01 	rsb	r3, r3, #4096	; 0x1000
  100a04:	e0814003 	add	r4, r1, r3
  100a08:	e1a01004 	mov	r1, r4
  100a0c:	e1a00007 	mov	r0, r7
  100a10:	e58dc000 	str	ip, [sp]
  100a14:	eb0022a3 	bl	1094a8 <_sbrk_r>
  100a18:	e3700001 	cmn	r0, #1	; 0x1
  100a1c:	106a3000 	rsbne	r3, sl, r0
  100a20:	e59dc000 	ldr	ip, [sp]
  100a24:	10833004 	addne	r3, r3, r4
  100a28:	13830001 	orrne	r0, r3, #1	; 0x1
  100a2c:	e59f217c 	ldr	r2, [pc, #380]	; 100bb0 <prog+0xb6c>
  100a30:	e59c3000 	ldr	r3, [ip]
  100a34:	03a04000 	moveq	r4, #0	; 0x0
  100a38:	02800002 	addeq	r0, r0, #2	; 0x2
  100a3c:	e0843003 	add	r3, r4, r3
  100a40:	e1590002 	cmp	r9, r2
  100a44:	e1a0400a 	mov	r4, sl
  100a48:	e58c3000 	str	r3, [ip]
  100a4c:	e58a0004 	str	r0, [sl, #4]
  100a50:	e582a008 	str	sl, [r2, #8]
  100a54:	0a00000f 	beq	100a98 <_malloc_r+0x63c>
  100a58:	e358000f 	cmp	r8, #15	; 0xf
  100a5c:	93a03001 	movls	r3, #1	; 0x1
  100a60:	958a3004 	strls	r3, [sl, #4]
  100a64:	9affff91 	bls	1008b0 <_malloc_r+0x454>
  100a68:	e5993004 	ldr	r3, [r9, #4]
  100a6c:	e248200c 	sub	r2, r8, #12	; 0xc
  100a70:	e3c22007 	bic	r2, r2, #7	; 0x7
  100a74:	e2033001 	and	r3, r3, #1	; 0x1
  100a78:	e1823003 	orr	r3, r2, r3
  100a7c:	e3a01005 	mov	r1, #5	; 0x5
  100a80:	e352000f 	cmp	r2, #15	; 0xf
  100a84:	e0892002 	add	r2, r9, r2
  100a88:	e5893004 	str	r3, [r9, #4]
  100a8c:	e5821008 	str	r1, [r2, #8]
  100a90:	e5821004 	str	r1, [r2, #4]
  100a94:	8a000038 	bhi	100b7c <_malloc_r+0x720>
  100a98:	e59f1124 	ldr	r1, [pc, #292]	; 100bc4 <prog+0xb80>
  100a9c:	e59c2000 	ldr	r2, [ip]
  100aa0:	e5913000 	ldr	r3, [r1]
  100aa4:	e1520003 	cmp	r2, r3
  100aa8:	85812000 	strhi	r2, [r1]
  100aac:	e59f1114 	ldr	r1, [pc, #276]	; 100bc8 <prog+0xb84>
  100ab0:	e5913000 	ldr	r3, [r1]
  100ab4:	e1520003 	cmp	r2, r3
  100ab8:	85812000 	strhi	r2, [r1]
  100abc:	eaffff7b 	b	1008b0 <_malloc_r+0x454>
  100ac0:	e59f20e8 	ldr	r2, [pc, #232]	; 100bb0 <prog+0xb6c>
  100ac4:	e5924008 	ldr	r4, [r2, #8]
  100ac8:	eaffff78 	b	1008b0 <_malloc_r+0x454>
  100acc:	e59a3004 	ldr	r3, [sl, #4]
  100ad0:	e1a01121 	mov	r1, r1, lsr #2
  100ad4:	e3a02001 	mov	r2, #1	; 0x1
  100ad8:	e1833112 	orr	r3, r3, r2, lsl r1
  100adc:	e58a3004 	str	r3, [sl, #4]
  100ae0:	eaffff15 	b	10073c <_malloc_r+0x2e0>
  100ae4:	e1a0c00e 	mov	ip, lr
  100ae8:	e1a01009 	mov	r1, r9
  100aec:	e31c0003 	tst	ip, #3	; 0x3
  100af0:	e2411008 	sub	r1, r1, #8	; 0x8
  100af4:	e24cc001 	sub	ip, ip, #1	; 0x1
  100af8:	0a000027 	beq	100b9c <_malloc_r+0x740>
  100afc:	e5913008 	ldr	r3, [r1, #8]
  100b00:	e1530001 	cmp	r3, r1
  100b04:	0afffff8 	beq	100aec <_malloc_r+0x690>
  100b08:	e1a02082 	mov	r2, r2, lsl #1
  100b0c:	e1520000 	cmp	r2, r0
  100b10:	8affff40 	bhi	100818 <_malloc_r+0x3bc>
  100b14:	e3520000 	cmp	r2, #0	; 0x0
  100b18:	0affff3e 	beq	100818 <_malloc_r+0x3bc>
  100b1c:	e1120000 	tst	r2, r0
  100b20:	11a0e00a 	movne	lr, sl
  100b24:	1affff13 	bne	100778 <_malloc_r+0x31c>
  100b28:	e1a02082 	mov	r2, r2, lsl #1
  100b2c:	e1100002 	tst	r0, r2
  100b30:	e28aa004 	add	sl, sl, #4	; 0x4
  100b34:	0afffffb 	beq	100b28 <_malloc_r+0x6cc>
  100b38:	e1a0e00a 	mov	lr, sl
  100b3c:	eaffff0d 	b	100778 <_malloc_r+0x31c>
  100b40:	e59fc078 	ldr	ip, [pc, #120]	; 100bc0 <prog+0xb7c>
  100b44:	e59c3000 	ldr	r3, [ip]
  100b48:	e0862003 	add	r2, r6, r3
  100b4c:	e58c2000 	str	r2, [ip]
  100b50:	eaffff9c 	b	1009c8 <_malloc_r+0x56c>
  100b54:	e1a03a00 	mov	r3, r0, lsl #20
  100b58:	e1a03a23 	mov	r3, r3, lsr #20
  100b5c:	e3530000 	cmp	r3, #0	; 0x0
  100b60:	1affff98 	bne	1009c8 <_malloc_r+0x56c>
  100b64:	e59f2044 	ldr	r2, [pc, #68]	; 100bb0 <prog+0xb6c>
  100b68:	e0863008 	add	r3, r6, r8
  100b6c:	e5924008 	ldr	r4, [r2, #8]
  100b70:	e3833001 	orr	r3, r3, #1	; 0x1
  100b74:	e5843004 	str	r3, [r4, #4]
  100b78:	eaffffc6 	b	100a98 <_malloc_r+0x63c>
  100b7c:	e2891008 	add	r1, r9, #8	; 0x8
  100b80:	e1a00007 	mov	r0, r7
  100b84:	e58dc000 	str	ip, [sp]
  100b88:	eb00114f 	bl	1050cc <_free_r>
  100b8c:	e59f301c 	ldr	r3, [pc, #28]	; 100bb0 <prog+0xb6c>
  100b90:	e59dc000 	ldr	ip, [sp]
  100b94:	e5934008 	ldr	r4, [r3, #8]
  100b98:	eaffffbe 	b	100a98 <_malloc_r+0x63c>
  100b9c:	e1e03002 	mvn	r3, r2
  100ba0:	e0000003 	and	r0, r0, r3
  100ba4:	e59f3004 	ldr	r3, [pc, #4]	; 100bb0 <prog+0xb6c>
  100ba8:	e5830004 	str	r0, [r3, #4]
  100bac:	eaffffd5 	b	100b08 <_malloc_r+0x6ac>
  100bb0:	00200000 	eoreq	r0, r0, r0
  100bb4:	00200008 	eoreq	r0, r0, r8
  100bb8:	00200b88 	eoreq	r0, r0, r8, lsl #23
  100bbc:	0020040c 	eoreq	r0, r0, ip, lsl #8
  100bc0:	00200b94 	mlaeq	r0, r4, fp, r0
  100bc4:	00200b8c 	eoreq	r0, r0, ip, lsl #23
  100bc8:	00200b90 	mlaeq	r0, r0, fp, r0

00100bcc <memcpy>:
  100bcc:	e352000f 	cmp	r2, #15	; 0xf
  100bd0:	e52de004 	str	lr, [sp, #-4]!
  100bd4:	e1a0c000 	mov	ip, r0
  100bd8:	e1a0e002 	mov	lr, r2
  100bdc:	9a000002 	bls	100bec <memcpy+0x20>
  100be0:	e1813000 	orr	r3, r1, r0
  100be4:	e3130003 	tst	r3, #3	; 0x3
  100be8:	0a000008 	beq	100c10 <memcpy+0x44>
  100bec:	e35e0000 	cmp	lr, #0	; 0x0
  100bf0:	049df004 	ldreq	pc, [sp], #4
  100bf4:	e3a02000 	mov	r2, #0	; 0x0
  100bf8:	e4d13001 	ldrb	r3, [r1], #1
  100bfc:	e7c2300c 	strb	r3, [r2, ip]
  100c00:	e2822001 	add	r2, r2, #1	; 0x1
  100c04:	e152000e 	cmp	r2, lr
  100c08:	1afffffa 	bne	100bf8 <memcpy+0x2c>
  100c0c:	e49df004 	ldr	pc, [sp], #4
  100c10:	e5913000 	ldr	r3, [r1]
  100c14:	e58c3000 	str	r3, [ip]
  100c18:	e5912004 	ldr	r2, [r1, #4]
  100c1c:	e58c2004 	str	r2, [ip, #4]
  100c20:	e5913008 	ldr	r3, [r1, #8]
  100c24:	e58c3008 	str	r3, [ip, #8]
  100c28:	e24ee010 	sub	lr, lr, #16	; 0x10
  100c2c:	e591300c 	ldr	r3, [r1, #12]
  100c30:	e35e000f 	cmp	lr, #15	; 0xf
  100c34:	e58c300c 	str	r3, [ip, #12]
  100c38:	e2811010 	add	r1, r1, #16	; 0x10
  100c3c:	e28cc010 	add	ip, ip, #16	; 0x10
  100c40:	8afffff2 	bhi	100c10 <memcpy+0x44>
  100c44:	e35e0003 	cmp	lr, #3	; 0x3
  100c48:	9affffe7 	bls	100bec <memcpy+0x20>
  100c4c:	e24ee004 	sub	lr, lr, #4	; 0x4
  100c50:	e4913004 	ldr	r3, [r1], #4
  100c54:	e35e0003 	cmp	lr, #3	; 0x3
  100c58:	e48c3004 	str	r3, [ip], #4
  100c5c:	8afffffa 	bhi	100c4c <memcpy+0x80>
  100c60:	e35e0000 	cmp	lr, #0	; 0x0
  100c64:	1affffe2 	bne	100bf4 <memcpy+0x28>
  100c68:	e49df004 	ldr	pc, [sp], #4

00100c6c <memset>:
  100c6c:	e3520003 	cmp	r2, #3	; 0x3
  100c70:	e20110ff 	and	r1, r1, #255	; 0xff
  100c74:	e1a0c000 	mov	ip, r0
  100c78:	9a000001 	bls	100c84 <memset+0x18>
  100c7c:	e3100003 	tst	r0, #3	; 0x3
  100c80:	0a000008 	beq	100ca8 <memset+0x3c>
  100c84:	e3520000 	cmp	r2, #0	; 0x0
  100c88:	012fff1e 	bxeq	lr
  100c8c:	e20110ff 	and	r1, r1, #255	; 0xff
  100c90:	e3a03000 	mov	r3, #0	; 0x0
  100c94:	e7c3100c 	strb	r1, [r3, ip]
  100c98:	e2833001 	add	r3, r3, #1	; 0x1
  100c9c:	e1530002 	cmp	r3, r2
  100ca0:	1afffffb 	bne	100c94 <memset+0x28>
  100ca4:	e12fff1e 	bx	lr
  100ca8:	e1813401 	orr	r3, r1, r1, lsl #8
  100cac:	e352000f 	cmp	r2, #15	; 0xf
  100cb0:	e183c803 	orr	ip, r3, r3, lsl #16
  100cb4:	e1a03000 	mov	r3, r0
  100cb8:	9a000009 	bls	100ce4 <memset+0x78>
  100cbc:	e2422010 	sub	r2, r2, #16	; 0x10
  100cc0:	e352000f 	cmp	r2, #15	; 0xf
  100cc4:	e583c000 	str	ip, [r3]
  100cc8:	e583c004 	str	ip, [r3, #4]
  100ccc:	e583c008 	str	ip, [r3, #8]
  100cd0:	e583c00c 	str	ip, [r3, #12]
  100cd4:	e2833010 	add	r3, r3, #16	; 0x10
  100cd8:	8afffff7 	bhi	100cbc <memset+0x50>
  100cdc:	e3520003 	cmp	r2, #3	; 0x3
  100ce0:	9a000003 	bls	100cf4 <memset+0x88>
  100ce4:	e2422004 	sub	r2, r2, #4	; 0x4
  100ce8:	e3520003 	cmp	r2, #3	; 0x3
  100cec:	e483c004 	str	ip, [r3], #4
  100cf0:	8afffffb 	bhi	100ce4 <memset+0x78>
  100cf4:	e3520000 	cmp	r2, #0	; 0x0
  100cf8:	e1a0c003 	mov	ip, r3
  100cfc:	1affffe2 	bne	100c8c <memset+0x20>
  100d00:	e12fff1e 	bx	lr

00100d04 <__malloc_lock>:
  100d04:	e12fff1e 	bx	lr

00100d08 <__malloc_unlock>:
  100d08:	e12fff1e 	bx	lr

00100d0c <sprintf>:
  100d0c:	e92d000e 	stmdb	sp!, {r1, r2, r3}
  100d10:	e92d4030 	stmdb	sp!, {r4, r5, lr}
  100d14:	e59f2060 	ldr	r2, [pc, #96]	; 100d7c <prog+0xd38>
  100d18:	e24dd060 	sub	sp, sp, #96	; 0x60
  100d1c:	e28d4070 	add	r4, sp, #112	; 0x70
  100d20:	e3e0c102 	mvn	ip, #-2147483648	; 0x80000000
  100d24:	e1a0e000 	mov	lr, r0
  100d28:	e1a03004 	mov	r3, r4
  100d2c:	e58dc014 	str	ip, [sp, #20]
  100d30:	e58dc008 	str	ip, [sp, #8]
  100d34:	e5920000 	ldr	r0, [r2]
  100d38:	e3e0c000 	mvn	ip, #0	; 0x0
  100d3c:	e59d206c 	ldr	r2, [sp, #108]
  100d40:	e1a0100d 	mov	r1, sp
  100d44:	e3a05f82 	mov	r5, #520	; 0x208
  100d48:	e58de010 	str	lr, [sp, #16]
  100d4c:	e1cd50bc 	strh	r5, [sp, #12]
  100d50:	e58de000 	str	lr, [sp]
  100d54:	e1cdc0be 	strh	ip, [sp, #14]
  100d58:	e58d405c 	str	r4, [sp, #92]
  100d5c:	eb00009a 	bl	100fcc <_vfprintf_r>
  100d60:	e59d3000 	ldr	r3, [sp]
  100d64:	e3a02000 	mov	r2, #0	; 0x0
  100d68:	e5c32000 	strb	r2, [r3]
  100d6c:	e28dd060 	add	sp, sp, #96	; 0x60
  100d70:	e8bd4030 	ldmia	sp!, {r4, r5, lr}
  100d74:	e28dd00c 	add	sp, sp, #12	; 0xc
  100d78:	e12fff1e 	bx	lr
  100d7c:	00200410 	eoreq	r0, r0, r0, lsl r4

00100d80 <_sprintf_r>:
  100d80:	e92d000c 	stmdb	sp!, {r2, r3}
  100d84:	e92d4030 	stmdb	sp!, {r4, r5, lr}
  100d88:	e24dd060 	sub	sp, sp, #96	; 0x60
  100d8c:	e28d4070 	add	r4, sp, #112	; 0x70
  100d90:	e3e0c102 	mvn	ip, #-2147483648	; 0x80000000
  100d94:	e1a0e001 	mov	lr, r1
  100d98:	e1a03004 	mov	r3, r4
  100d9c:	e59d206c 	ldr	r2, [sp, #108]
  100da0:	e58dc014 	str	ip, [sp, #20]
  100da4:	e58dc008 	str	ip, [sp, #8]
  100da8:	e1a0100d 	mov	r1, sp
  100dac:	e3e0c000 	mvn	ip, #0	; 0x0
  100db0:	e3a05f82 	mov	r5, #520	; 0x208
  100db4:	e58de010 	str	lr, [sp, #16]
  100db8:	e1cd50bc 	strh	r5, [sp, #12]
  100dbc:	e58de000 	str	lr, [sp]
  100dc0:	e1cdc0be 	strh	ip, [sp, #14]
  100dc4:	e58d405c 	str	r4, [sp, #92]
  100dc8:	eb00007f 	bl	100fcc <_vfprintf_r>
  100dcc:	e59d3000 	ldr	r3, [sp]
  100dd0:	e3a02000 	mov	r2, #0	; 0x0
  100dd4:	e5c32000 	strb	r2, [r3]
  100dd8:	e28dd060 	add	sp, sp, #96	; 0x60
  100ddc:	e8bd4030 	ldmia	sp!, {r4, r5, lr}
  100de0:	e28dd008 	add	sp, sp, #8	; 0x8
  100de4:	e12fff1e 	bx	lr

00100de8 <strlen>:
  100de8:	e3100003 	tst	r0, #3	; 0x3
  100dec:	e1a01000 	mov	r1, r0
  100df0:	1a000018 	bne	100e58 <strlen+0x70>
  100df4:	e5902000 	ldr	r2, [r0]
  100df8:	e28234ff 	add	r3, r2, #-16777216	; 0xff000000
  100dfc:	e2433801 	sub	r3, r3, #65536	; 0x10000
  100e00:	e2433c01 	sub	r3, r3, #256	; 0x100
  100e04:	e2433001 	sub	r3, r3, #1	; 0x1
  100e08:	e3c3347f 	bic	r3, r3, #2130706432	; 0x7f000000
  100e0c:	e3c3387f 	bic	r3, r3, #8323072	; 0x7f0000
  100e10:	e3c33c7f 	bic	r3, r3, #32512	; 0x7f00
  100e14:	e3c3307f 	bic	r3, r3, #127	; 0x7f
  100e18:	e1d32002 	bics	r2, r3, r2
  100e1c:	e1a02000 	mov	r2, r0
  100e20:	1a00000b 	bne	100e54 <strlen+0x6c>
  100e24:	e5b02004 	ldr	r2, [r0, #4]!
  100e28:	e28234ff 	add	r3, r2, #-16777216	; 0xff000000
  100e2c:	e2433801 	sub	r3, r3, #65536	; 0x10000
  100e30:	e2433c01 	sub	r3, r3, #256	; 0x100
  100e34:	e2433001 	sub	r3, r3, #1	; 0x1
  100e38:	e3c3347f 	bic	r3, r3, #2130706432	; 0x7f000000
  100e3c:	e3c3387f 	bic	r3, r3, #8323072	; 0x7f0000
  100e40:	e3c33c7f 	bic	r3, r3, #32512	; 0x7f00
  100e44:	e3c3307f 	bic	r3, r3, #127	; 0x7f
  100e48:	e1d32002 	bics	r2, r3, r2
  100e4c:	0afffff4 	beq	100e24 <strlen+0x3c>
  100e50:	e1a02000 	mov	r2, r0
  100e54:	e1a00002 	mov	r0, r2
  100e58:	e5d03000 	ldrb	r3, [r0]
  100e5c:	e3530000 	cmp	r3, #0	; 0x0
  100e60:	0a000002 	beq	100e70 <strlen+0x88>
  100e64:	e5f03001 	ldrb	r3, [r0, #1]!
  100e68:	e3530000 	cmp	r3, #0	; 0x0
  100e6c:	1afffffc 	bne	100e64 <strlen+0x7c>
  100e70:	e0610000 	rsb	r0, r1, r0
  100e74:	e12fff1e 	bx	lr

00100e78 <strncpy>:
  100e78:	e92d4030 	stmdb	sp!, {r4, r5, lr}
  100e7c:	e1a04001 	mov	r4, r1
  100e80:	e1811000 	orr	r1, r1, r0
  100e84:	e3110003 	tst	r1, #3	; 0x3
  100e88:	13a03000 	movne	r3, #0	; 0x0
  100e8c:	03a03001 	moveq	r3, #1	; 0x1
  100e90:	e3520003 	cmp	r2, #3	; 0x3
  100e94:	93a03000 	movls	r3, #0	; 0x0
  100e98:	82033001 	andhi	r3, r3, #1	; 0x1
  100e9c:	e3530000 	cmp	r3, #0	; 0x0
  100ea0:	01a01004 	moveq	r1, r4
  100ea4:	e1a05000 	mov	r5, r0
  100ea8:	e1a0e002 	mov	lr, r2
  100eac:	01a04000 	moveq	r4, r0
  100eb0:	0a000018 	beq	100f18 <strncpy+0xa0>
  100eb4:	e3520003 	cmp	r2, #3	; 0x3
  100eb8:	e1a0c004 	mov	ip, r4
  100ebc:	9a000013 	bls	100f10 <strncpy+0x98>
  100ec0:	e5941000 	ldr	r1, [r4]
  100ec4:	ea000005 	b	100ee0 <strncpy+0x68>
  100ec8:	e24ee004 	sub	lr, lr, #4	; 0x4
  100ecc:	e35e0003 	cmp	lr, #3	; 0x3
  100ed0:	e4801004 	str	r1, [r0], #4
  100ed4:	e28cc004 	add	ip, ip, #4	; 0x4
  100ed8:	9a00000c 	bls	100f10 <strncpy+0x98>
  100edc:	e59c1000 	ldr	r1, [ip]
  100ee0:	e28134ff 	add	r3, r1, #-16777216	; 0xff000000
  100ee4:	e2433801 	sub	r3, r3, #65536	; 0x10000
  100ee8:	e2433c01 	sub	r3, r3, #256	; 0x100
  100eec:	e2433001 	sub	r3, r3, #1	; 0x1
  100ef0:	e1e02001 	mvn	r2, r1
  100ef4:	e0033002 	and	r3, r3, r2
  100ef8:	e3c3347f 	bic	r3, r3, #2130706432	; 0x7f000000
  100efc:	e3c3387f 	bic	r3, r3, #8323072	; 0x7f0000
  100f00:	e3c33c7f 	bic	r3, r3, #32512	; 0x7f00
  100f04:	e3c3307f 	bic	r3, r3, #127	; 0x7f
  100f08:	e3530000 	cmp	r3, #0	; 0x0
  100f0c:	0affffed 	beq	100ec8 <strncpy+0x50>
  100f10:	e1a04000 	mov	r4, r0
  100f14:	e1a0100c 	mov	r1, ip
  100f18:	e35e0000 	cmp	lr, #0	; 0x0
  100f1c:	0a000018 	beq	100f84 <strncpy+0x10c>
  100f20:	e5d13000 	ldrb	r3, [r1]
  100f24:	e24e2001 	sub	r2, lr, #1	; 0x1
  100f28:	e3530000 	cmp	r3, #0	; 0x0
  100f2c:	e1a0c004 	mov	ip, r4
  100f30:	e4cc3001 	strb	r3, [ip], #1
  100f34:	1284e002 	addne	lr, r4, #2	; 0x2
  100f38:	10810002 	addne	r0, r1, r2
  100f3c:	0a000008 	beq	100f64 <strncpy+0xec>
  100f40:	e1500001 	cmp	r0, r1
  100f44:	e1a0c00e 	mov	ip, lr
  100f48:	e2422001 	sub	r2, r2, #1	; 0x1
  100f4c:	e28ee001 	add	lr, lr, #1	; 0x1
  100f50:	0a00000b 	beq	100f84 <strncpy+0x10c>
  100f54:	e5f13001 	ldrb	r3, [r1, #1]!
  100f58:	e3530000 	cmp	r3, #0	; 0x0
  100f5c:	e54c3001 	strb	r3, [ip, #-1]
  100f60:	1afffff6 	bne	100f40 <strncpy+0xc8>
  100f64:	e3520000 	cmp	r2, #0	; 0x0
  100f68:	0a000005 	beq	100f84 <strncpy+0x10c>
  100f6c:	e3a03000 	mov	r3, #0	; 0x0
  100f70:	e1a01003 	mov	r1, r3
  100f74:	e7c3100c 	strb	r1, [r3, ip]
  100f78:	e2833001 	add	r3, r3, #1	; 0x1
  100f7c:	e1520003 	cmp	r2, r3
  100f80:	1afffffb 	bne	100f74 <strncpy+0xfc>
  100f84:	e1a00005 	mov	r0, r5
  100f88:	e8bd8030 	ldmia	sp!, {r4, r5, pc}

00100f8c <__sprint>:
  100f8c:	e5913008 	ldr	r3, [r1, #8]
  100f90:	e3530000 	cmp	r3, #0	; 0x0
  100f94:	e92d4010 	stmdb	sp!, {r4, lr}
  100f98:	e1a02003 	mov	r2, r3
  100f9c:	e1a04001 	mov	r4, r1
  100fa0:	05813004 	streq	r3, [r1, #4]
  100fa4:	1a000001 	bne	100fb0 <__sprint+0x24>
  100fa8:	e1a00002 	mov	r0, r2
  100fac:	e8bd8010 	ldmia	sp!, {r4, pc}
  100fb0:	eb0010ed 	bl	10536c <__sfvwrite>
  100fb4:	e1a02000 	mov	r2, r0
  100fb8:	e3a03000 	mov	r3, #0	; 0x0
  100fbc:	e1a00002 	mov	r0, r2
  100fc0:	e5843004 	str	r3, [r4, #4]
  100fc4:	e5843008 	str	r3, [r4, #8]
  100fc8:	e8bd8010 	ldmia	sp!, {r4, pc}

00100fcc <_vfprintf_r>:
  100fcc:	e92d4ff0 	stmdb	sp!, {r4, r5, r6, r7, r8, r9, sl, fp, lr}
  100fd0:	e24dde6b 	sub	sp, sp, #1712	; 0x6b0
  100fd4:	e1a0a001 	mov	sl, r1
  100fd8:	e58d0010 	str	r0, [sp, #16]
  100fdc:	e1a04002 	mov	r4, r2
  100fe0:	e1a09003 	mov	r9, r3
  100fe4:	eb001228 	bl	10588c <localeconv>
  100fe8:	e59d1010 	ldr	r1, [sp, #16]
  100fec:	e5900000 	ldr	r0, [r0]
  100ff0:	e3510000 	cmp	r1, #0	; 0x0
  100ff4:	e58d0028 	str	r0, [sp, #40]
  100ff8:	0a000002 	beq	101008 <_vfprintf_r+0x3c>
  100ffc:	e5913038 	ldr	r3, [r1, #56]
  101000:	e3530000 	cmp	r3, #0	; 0x0
  101004:	0a0000cf 	beq	101348 <prog+0x1304>
  101008:	e1dac0bc 	ldrh	ip, [sl, #12]
  10100c:	e31c0008 	tst	ip, #8	; 0x8
  101010:	0a0000cf 	beq	101354 <prog+0x1310>
  101014:	e59a3010 	ldr	r3, [sl, #16]
  101018:	e3530000 	cmp	r3, #0	; 0x0
  10101c:	0a0000cc 	beq	101354 <prog+0x1310>
  101020:	e20c301a 	and	r3, ip, #26	; 0x1a
  101024:	e353000a 	cmp	r3, #10	; 0xa
  101028:	1a00002d 	bne	1010e4 <_vfprintf_r+0x118>
  10102c:	e1da30fe 	ldrsh	r3, [sl, #14]
  101030:	e3530000 	cmp	r3, #0	; 0x0
  101034:	ba00002a 	blt	1010e4 <_vfprintf_r+0x118>
  101038:	e3ccc002 	bic	ip, ip, #2	; 0x2
  10103c:	e28d8c05 	add	r8, sp, #1280	; 0x500
  101040:	e1c8ccb0 	strh	ip, [r8, #192]
  101044:	e3a0c000 	mov	ip, #0	; 0x0
  101048:	e58dc5cc 	str	ip, [sp, #1484]
  10104c:	e28d7e5b 	add	r7, sp, #1456	; 0x5b0
  101050:	e1dac0be 	ldrh	ip, [sl, #14]
  101054:	e59a501c 	ldr	r5, [sl, #28]
  101058:	e59a6024 	ldr	r6, [sl, #36]
  10105c:	e28de060 	add	lr, sp, #96	; 0x60
  101060:	e2877004 	add	r7, r7, #4	; 0x4
  101064:	e24ee008 	sub	lr, lr, #8	; 0x8
  101068:	e1a02004 	mov	r2, r4
  10106c:	e59d0010 	ldr	r0, [sp, #16]
  101070:	e3a04b01 	mov	r4, #1024	; 0x400
  101074:	e1a03009 	mov	r3, r9
  101078:	e1a01007 	mov	r1, r7
  10107c:	e1c8ccb2 	strh	ip, [r8, #194]
  101080:	e58d55d0 	str	r5, [sp, #1488]
  101084:	e58d65d8 	str	r6, [sp, #1496]
  101088:	e58de5c4 	str	lr, [sp, #1476]
  10108c:	e58d45c8 	str	r4, [sp, #1480]
  101090:	e58de5b4 	str	lr, [sp, #1460]
  101094:	e58d45bc 	str	r4, [sp, #1468]
  101098:	ebffffcb 	bl	100fcc <_vfprintf_r>
  10109c:	e3500000 	cmp	r0, #0	; 0x0
  1010a0:	e58d0020 	str	r0, [sp, #32]
  1010a4:	ba000005 	blt	1010c0 <_vfprintf_r+0xf4>
  1010a8:	e1a00007 	mov	r0, r7
  1010ac:	eb000ef0 	bl	104c74 <fflush>
  1010b0:	e59d1020 	ldr	r1, [sp, #32]
  1010b4:	e3500000 	cmp	r0, #0	; 0x0
  1010b8:	13e01000 	mvnne	r1, #0	; 0x0
  1010bc:	e58d1020 	str	r1, [sp, #32]
  1010c0:	e28d2c05 	add	r2, sp, #1280	; 0x500
  1010c4:	e1d23cb0 	ldrh	r3, [r2, #192]
  1010c8:	e3130040 	tst	r3, #64	; 0x40
  1010cc:	11da30bc 	ldrneh	r3, [sl, #12]
  1010d0:	13833040 	orrne	r3, r3, #64	; 0x40
  1010d4:	11ca30bc 	strneh	r3, [sl, #12]
  1010d8:	e59d0020 	ldr	r0, [sp, #32]
  1010dc:	e28dde6b 	add	sp, sp, #1712	; 0x6b0
  1010e0:	e8bd8ff0 	ldmia	sp!, {r4, r5, r6, r7, r8, r9, sl, fp, pc}
  1010e4:	e58d4018 	str	r4, [sp, #24]
  1010e8:	e3a03000 	mov	r3, #0	; 0x0
  1010ec:	e3a04000 	mov	r4, #0	; 0x0
  1010f0:	e3a06000 	mov	r6, #0	; 0x0
  1010f4:	e28d8e61 	add	r8, sp, #1552	; 0x610
  1010f8:	e58d3048 	str	r3, [sp, #72]
  1010fc:	e58d404c 	str	r4, [sp, #76]
  101100:	e58d6020 	str	r6, [sp, #32]
  101104:	e58d6030 	str	r6, [sp, #48]
  101108:	e58d6040 	str	r6, [sp, #64]
  10110c:	e58d6044 	str	r6, [sp, #68]
  101110:	e58d8678 	str	r8, [sp, #1656]
  101114:	e58d6680 	str	r6, [sp, #1664]
  101118:	e58d667c 	str	r6, [sp, #1660]
  10111c:	e1a05006 	mov	r5, r6
  101120:	e59d4018 	ldr	r4, [sp, #24]
  101124:	e5d43000 	ldrb	r3, [r4]
  101128:	e3530000 	cmp	r3, #0	; 0x0
  10112c:	13530025 	cmpne	r3, #37	; 0x25
  101130:	0a000017 	beq	101194 <_vfprintf_r+0x1c8>
  101134:	e59d2018 	ldr	r2, [sp, #24]
  101138:	e5f23001 	ldrb	r3, [r2, #1]!
  10113c:	e3530000 	cmp	r3, #0	; 0x0
  101140:	13530025 	cmpne	r3, #37	; 0x25
  101144:	1afffffb 	bne	101138 <_vfprintf_r+0x16c>
  101148:	e59d5018 	ldr	r5, [sp, #24]
  10114c:	e0527005 	subs	r7, r2, r5
  101150:	e1a04002 	mov	r4, r2
  101154:	0a00000e 	beq	101194 <_vfprintf_r+0x1c8>
  101158:	e59d567c 	ldr	r5, [sp, #1660]
  10115c:	e59d6680 	ldr	r6, [sp, #1664]
  101160:	e2855001 	add	r5, r5, #1	; 0x1
  101164:	e59dc018 	ldr	ip, [sp, #24]
  101168:	e3550007 	cmp	r5, #7	; 0x7
  10116c:	e0866007 	add	r6, r6, r7
  101170:	e588c000 	str	ip, [r8]
  101174:	e5887004 	str	r7, [r8, #4]
  101178:	e58d6680 	str	r6, [sp, #1664]
  10117c:	e58d567c 	str	r5, [sp, #1660]
  101180:	d2888008 	addle	r8, r8, #8	; 0x8
  101184:	ca00041d 	bgt	102200 <prog+0x21bc>
  101188:	e59d1020 	ldr	r1, [sp, #32]
  10118c:	e0811007 	add	r1, r1, r7
  101190:	e58d1020 	str	r1, [sp, #32]
  101194:	e5d43000 	ldrb	r3, [r4]
  101198:	e3530000 	cmp	r3, #0	; 0x0
  10119c:	0a0006ef 	beq	102d60 <prog+0x2d1c>
  1011a0:	e3a03000 	mov	r3, #0	; 0x0
  1011a4:	e5cd36af 	strb	r3, [sp, #1711]
  1011a8:	e58d3024 	str	r3, [sp, #36]
  1011ac:	e3a02000 	mov	r2, #0	; 0x0
  1011b0:	e5d43001 	ldrb	r3, [r4, #1]
  1011b4:	e2844001 	add	r4, r4, #1	; 0x1
  1011b8:	e58d4018 	str	r4, [sp, #24]
  1011bc:	e58d2054 	str	r2, [sp, #84]
  1011c0:	e3e06000 	mvn	r6, #0	; 0x0
  1011c4:	e59dc018 	ldr	ip, [sp, #24]
  1011c8:	e28cc001 	add	ip, ip, #1	; 0x1
  1011cc:	e58dc018 	str	ip, [sp, #24]
  1011d0:	e1a07003 	mov	r7, r3
  1011d4:	e2473020 	sub	r3, r7, #32	; 0x20
  1011d8:	e3530058 	cmp	r3, #88	; 0x58
  1011dc:	979ff103 	ldrls	pc, [pc, r3, lsl #2]
  1011e0:	ea000198 	b	101848 <prog+0x1804>
  1011e4:	00101660 	andeqs	r1, r0, r0, ror #12
  1011e8:	00101848 	andeqs	r1, r0, r8, asr #16
  1011ec:	00101848 	andeqs	r1, r0, r8, asr #16
  1011f0:	00101678 	andeqs	r1, r0, r8, ror r6
  1011f4:	00101848 	andeqs	r1, r0, r8, asr #16
  1011f8:	00101848 	andeqs	r1, r0, r8, asr #16
  1011fc:	00101848 	andeqs	r1, r0, r8, asr #16
  101200:	00101848 	andeqs	r1, r0, r8, asr #16
  101204:	00101848 	andeqs	r1, r0, r8, asr #16
  101208:	00101848 	andeqs	r1, r0, r8, asr #16
  10120c:	00101690 	muleqs	r0, r0, r6
  101210:	001016b4 	ldreqh	r1, [r0], -r4
  101214:	00101848 	andeqs	r1, r0, r8, asr #16
  101218:	00101648 	andeqs	r1, r0, r8, asr #12
  10121c:	00101d74 	andeqs	r1, r0, r4, ror sp
  101220:	00101848 	andeqs	r1, r0, r8, asr #16
  101224:	00101d2c 	andeqs	r1, r0, ip, lsr #26
  101228:	00101d44 	andeqs	r1, r0, r4, asr #26
  10122c:	00101d44 	andeqs	r1, r0, r4, asr #26
  101230:	00101d44 	andeqs	r1, r0, r4, asr #26
  101234:	00101d44 	andeqs	r1, r0, r4, asr #26
  101238:	00101d44 	andeqs	r1, r0, r4, asr #26
  10123c:	00101d44 	andeqs	r1, r0, r4, asr #26
  101240:	00101d44 	andeqs	r1, r0, r4, asr #26
  101244:	00101d44 	andeqs	r1, r0, r4, asr #26
  101248:	00101d44 	andeqs	r1, r0, r4, asr #26
  10124c:	00101848 	andeqs	r1, r0, r8, asr #16
  101250:	00101848 	andeqs	r1, r0, r8, asr #16
  101254:	00101848 	andeqs	r1, r0, r8, asr #16
  101258:	00101848 	andeqs	r1, r0, r8, asr #16
  10125c:	00101848 	andeqs	r1, r0, r8, asr #16
  101260:	00101848 	andeqs	r1, r0, r8, asr #16
  101264:	00101848 	andeqs	r1, r0, r8, asr #16
  101268:	00101848 	andeqs	r1, r0, r8, asr #16
  10126c:	00101848 	andeqs	r1, r0, r8, asr #16
  101270:	0010171c 	andeqs	r1, r0, ip, lsl r7
  101274:	001013b4 	ldreqh	r1, [r0], -r4
  101278:	00101798 	muleqs	r0, r8, r7
  10127c:	00101798 	muleqs	r0, r8, r7
  101280:	00101798 	muleqs	r0, r8, r7
  101284:	00101848 	andeqs	r1, r0, r8, asr #16
  101288:	00101848 	andeqs	r1, r0, r8, asr #16
  10128c:	00101848 	andeqs	r1, r0, r8, asr #16
  101290:	00101848 	andeqs	r1, r0, r8, asr #16
  101294:	00101d14 	andeqs	r1, r0, r4, lsl sp
  101298:	00101848 	andeqs	r1, r0, r8, asr #16
  10129c:	00101848 	andeqs	r1, r0, r8, asr #16
  1012a0:	0010144c 	andeqs	r1, r0, ip, asr #8
  1012a4:	00101848 	andeqs	r1, r0, r8, asr #16
  1012a8:	00101848 	andeqs	r1, r0, r8, asr #16
  1012ac:	00101848 	andeqs	r1, r0, r8, asr #16
  1012b0:	00101b6c 	andeqs	r1, r0, ip, ror #22
  1012b4:	00101848 	andeqs	r1, r0, r8, asr #16
  1012b8:	00101604 	andeqs	r1, r0, r4, lsl #12
  1012bc:	00101848 	andeqs	r1, r0, r8, asr #16
  1012c0:	00101848 	andeqs	r1, r0, r8, asr #16
  1012c4:	001016c8 	andeqs	r1, r0, r8, asr #13
  1012c8:	00101848 	andeqs	r1, r0, r8, asr #16
  1012cc:	00101848 	andeqs	r1, r0, r8, asr #16
  1012d0:	00101848 	andeqs	r1, r0, r8, asr #16
  1012d4:	00101848 	andeqs	r1, r0, r8, asr #16
  1012d8:	00101848 	andeqs	r1, r0, r8, asr #16
  1012dc:	00101848 	andeqs	r1, r0, r8, asr #16
  1012e0:	00101848 	andeqs	r1, r0, r8, asr #16
  1012e4:	00101848 	andeqs	r1, r0, r8, asr #16
  1012e8:	00101848 	andeqs	r1, r0, r8, asr #16
  1012ec:	00101848 	andeqs	r1, r0, r8, asr #16
  1012f0:	0010171c 	andeqs	r1, r0, ip, lsl r7
  1012f4:	001013c0 	andeqs	r1, r0, r0, asr #7
  1012f8:	00101798 	muleqs	r0, r8, r7
  1012fc:	00101798 	muleqs	r0, r8, r7
  101300:	00101798 	muleqs	r0, r8, r7
  101304:	00101830 	andeqs	r1, r0, r0, lsr r8
  101308:	001013c0 	andeqs	r1, r0, r0, asr #7
  10130c:	00101848 	andeqs	r1, r0, r8, asr #16
  101310:	00101848 	andeqs	r1, r0, r8, asr #16
  101314:	00101ca0 	andeqs	r1, r0, r0, lsr #25
  101318:	00101848 	andeqs	r1, r0, r8, asr #16
  10131c:	00101cd0 	ldreqsb	r1, [r0], -r0
  101320:	00101458 	andeqs	r1, r0, r8, asr r4
  101324:	00101b28 	andeqs	r1, r0, r8, lsr #22
  101328:	00101b54 	andeqs	r1, r0, r4, asr fp
  10132c:	00101848 	andeqs	r1, r0, r8, asr #16
  101330:	00101b6c 	andeqs	r1, r0, ip, ror #22
  101334:	00101848 	andeqs	r1, r0, r8, asr #16
  101338:	00101610 	andeqs	r1, r0, r0, lsl r6
  10133c:	00101848 	andeqs	r1, r0, r8, asr #16
  101340:	00101848 	andeqs	r1, r0, r8, asr #16
  101344:	00101b1c 	andeqs	r1, r0, ip, lsl fp
  101348:	e1a00001 	mov	r0, r1
  10134c:	eb000e9b 	bl	104dc0 <__sinit>
  101350:	eaffff2c 	b	101008 <_vfprintf_r+0x3c>
  101354:	e1a0000a 	mov	r0, sl
  101358:	eb000873 	bl	10352c <__swsetup>
  10135c:	e3500000 	cmp	r0, #0	; 0x0
  101360:	1a000010 	bne	1013a8 <prog+0x1364>
  101364:	e1dac0bc 	ldrh	ip, [sl, #12]
  101368:	eaffff2c 	b	101020 <_vfprintf_r+0x54>
  10136c:	e28d1e67 	add	r1, sp, #1648	; 0x670
  101370:	e1a0000a 	mov	r0, sl
  101374:	e2811008 	add	r1, r1, #8	; 0x8
  101378:	ebffff03 	bl	100f8c <__sprint>
  10137c:	e3500000 	cmp	r0, #0	; 0x0
  101380:	0a0001d8 	beq	101ae8 <prog+0x1aa4>
  101384:	e59d1044 	ldr	r1, [sp, #68]
  101388:	e3510000 	cmp	r1, #0	; 0x0
  10138c:	0a000002 	beq	10139c <prog+0x1358>
  101390:	e59d0010 	ldr	r0, [sp, #16]
  101394:	e59d1044 	ldr	r1, [sp, #68]
  101398:	eb000f4b 	bl	1050cc <_free_r>
  10139c:	e1da30bc 	ldrh	r3, [sl, #12]
  1013a0:	e3130040 	tst	r3, #64	; 0x40
  1013a4:	0affff4b 	beq	1010d8 <_vfprintf_r+0x10c>
  1013a8:	e3e02000 	mvn	r2, #0	; 0x0
  1013ac:	e58d2020 	str	r2, [sp, #32]
  1013b0:	eaffff48 	b	1010d8 <_vfprintf_r+0x10c>
  1013b4:	e59d3054 	ldr	r3, [sp, #84]
  1013b8:	e3833010 	orr	r3, r3, #16	; 0x10
  1013bc:	e58d3054 	str	r3, [sp, #84]
  1013c0:	e59d4054 	ldr	r4, [sp, #84]
  1013c4:	e3140010 	tst	r4, #16	; 0x10
  1013c8:	1a000002 	bne	1013d8 <prog+0x1394>
  1013cc:	e59d5054 	ldr	r5, [sp, #84]
  1013d0:	e3150040 	tst	r5, #64	; 0x40
  1013d4:	1a000414 	bne	10242c <prog+0x23e8>
  1013d8:	e5991000 	ldr	r1, [r9]
  1013dc:	e2899004 	add	r9, r9, #4	; 0x4
  1013e0:	e58d9050 	str	r9, [sp, #80]
  1013e4:	e3510000 	cmp	r1, #0	; 0x0
  1013e8:	b3a0302d 	movlt	r3, #45	; 0x2d
  1013ec:	a3a02001 	movge	r2, #1	; 0x1
  1013f0:	b2611000 	rsblt	r1, r1, #0	; 0x0
  1013f4:	b3a02001 	movlt	r2, #1	; 0x1
  1013f8:	b5cd36af 	strltb	r3, [sp, #1711]
  1013fc:	e3560000 	cmp	r6, #0	; 0x0
  101400:	aa00001f 	bge	101484 <prog+0x1440>
  101404:	e3520001 	cmp	r2, #1	; 0x1
  101408:	0a000384 	beq	102220 <prog+0x21dc>
  10140c:	328d0e5b 	addcc	r0, sp, #1456	; 0x5b0
  101410:	32800004 	addcc	r0, r0, #4	; 0x4
  101414:	3a0002c1 	bcc	101f20 <prog+0x1edc>
  101418:	e3520002 	cmp	r2, #2	; 0x2
  10141c:	0a00047e 	beq	10261c <prog+0x25d8>
  101420:	e59f0fcc 	ldr	r0, [pc, #4044]	; 1023f4 <prog+0x23b0>
  101424:	ebfffe6f 	bl	100de8 <strlen>
  101428:	e59fcfc4 	ldr	ip, [pc, #4036]	; 1023f4 <prog+0x23b0>
  10142c:	e1560000 	cmp	r6, r0
  101430:	a1a01006 	movge	r1, r6
  101434:	b1a01000 	movlt	r1, r0
  101438:	e1a0b000 	mov	fp, r0
  10143c:	e58dc01c 	str	ip, [sp, #28]
  101440:	e58d103c 	str	r1, [sp, #60]
  101444:	e58d6038 	str	r6, [sp, #56]
  101448:	ea00002c 	b	101500 <prog+0x14bc>
  10144c:	e59d2054 	ldr	r2, [sp, #84]
  101450:	e3822010 	orr	r2, r2, #16	; 0x10
  101454:	e58d2054 	str	r2, [sp, #84]
  101458:	e59d3054 	ldr	r3, [sp, #84]
  10145c:	e2132010 	ands	r2, r3, #16	; 0x10
  101460:	0a0003a4 	beq	1022f8 <prog+0x22b4>
  101464:	e5991000 	ldr	r1, [r9]
  101468:	e2899004 	add	r9, r9, #4	; 0x4
  10146c:	e58d9050 	str	r9, [sp, #80]
  101470:	e3a02000 	mov	r2, #0	; 0x0
  101474:	e3a03000 	mov	r3, #0	; 0x0
  101478:	e3560000 	cmp	r6, #0	; 0x0
  10147c:	e5cd36af 	strb	r3, [sp, #1711]
  101480:	baffffdf 	blt	101404 <prog+0x13c0>
  101484:	e59d3054 	ldr	r3, [sp, #84]
  101488:	e3560000 	cmp	r6, #0	; 0x0
  10148c:	03510000 	cmpeq	r1, #0	; 0x0
  101490:	e3c33080 	bic	r3, r3, #128	; 0x80
  101494:	e58d3054 	str	r3, [sp, #84]
  101498:	1affffd9 	bne	101404 <prog+0x13c0>
  10149c:	e3520000 	cmp	r2, #0	; 0x0
  1014a0:	128d2e5b 	addne	r2, sp, #1456	; 0x5b0
  1014a4:	12822004 	addne	r2, r2, #4	; 0x4
  1014a8:	158d201c 	strne	r2, [sp, #28]
  1014ac:	1a000009 	bne	1014d8 <prog+0x1494>
  1014b0:	e59d3054 	ldr	r3, [sp, #84]
  1014b4:	e3130001 	tst	r3, #1	; 0x1
  1014b8:	028d4e5b 	addeq	r4, sp, #1456	; 0x5b0
  1014bc:	128d5e5b 	addne	r5, sp, #1456	; 0x5b0
  1014c0:	02844004 	addeq	r4, r4, #4	; 0x4
  1014c4:	13a03030 	movne	r3, #48	; 0x30
  1014c8:	12855003 	addne	r5, r5, #3	; 0x3
  1014cc:	058d401c 	streq	r4, [sp, #28]
  1014d0:	15cd35b3 	strneb	r3, [sp, #1459]
  1014d4:	158d501c 	strne	r5, [sp, #28]
  1014d8:	e28d5e45 	add	r5, sp, #1104	; 0x450
  1014dc:	e59dc01c 	ldr	ip, [sp, #28]
  1014e0:	e2855008 	add	r5, r5, #8	; 0x8
  1014e4:	e06c3005 	rsb	r3, ip, r5
  1014e8:	e283bf57 	add	fp, r3, #348	; 0x15c
  1014ec:	e156000b 	cmp	r6, fp
  1014f0:	a1a01006 	movge	r1, r6
  1014f4:	b1a0100b 	movlt	r1, fp
  1014f8:	e58d103c 	str	r1, [sp, #60]
  1014fc:	e58d6038 	str	r6, [sp, #56]
  101500:	e5dd36af 	ldrb	r3, [sp, #1711]
  101504:	e3530000 	cmp	r3, #0	; 0x0
  101508:	0a0000dc 	beq	101880 <prog+0x183c>
  10150c:	e59d103c 	ldr	r1, [sp, #60]
  101510:	e59d4054 	ldr	r4, [sp, #84]
  101514:	e2811001 	add	r1, r1, #1	; 0x1
  101518:	e2144084 	ands	r4, r4, #132	; 0x84
  10151c:	e58d103c 	str	r1, [sp, #60]
  101520:	e58d4014 	str	r4, [sp, #20]
  101524:	1a0000de 	bne	1018a4 <prog+0x1860>
  101528:	e59d5024 	ldr	r5, [sp, #36]
  10152c:	e59dc03c 	ldr	ip, [sp, #60]
  101530:	e06c4005 	rsb	r4, ip, r5
  101534:	e3540000 	cmp	r4, #0	; 0x0
  101538:	da0000d9 	ble	1018a4 <prog+0x1860>
  10153c:	e3540010 	cmp	r4, #16	; 0x10
  101540:	da000484 	ble	102758 <prog+0x2714>
  101544:	e59d6680 	ldr	r6, [sp, #1664]
  101548:	e59d567c 	ldr	r5, [sp, #1660]
  10154c:	e59f9ec8 	ldr	r9, [pc, #3784]	; 10241c <prog+0x23d8>
  101550:	ea000002 	b	101560 <prog+0x151c>
  101554:	e2444010 	sub	r4, r4, #16	; 0x10
  101558:	e3540010 	cmp	r4, #16	; 0x10
  10155c:	da000015 	ble	1015b8 <prog+0x1574>
  101560:	e2855001 	add	r5, r5, #1	; 0x1
  101564:	e28d1e67 	add	r1, sp, #1648	; 0x670
  101568:	e2866010 	add	r6, r6, #16	; 0x10
  10156c:	e3a03010 	mov	r3, #16	; 0x10
  101570:	e3550007 	cmp	r5, #7	; 0x7
  101574:	e5883004 	str	r3, [r8, #4]
  101578:	e5889000 	str	r9, [r8]
  10157c:	e1a0000a 	mov	r0, sl
  101580:	e2811008 	add	r1, r1, #8	; 0x8
  101584:	e2888008 	add	r8, r8, #8	; 0x8
  101588:	e58d6680 	str	r6, [sp, #1664]
  10158c:	e58d567c 	str	r5, [sp, #1660]
  101590:	daffffef 	ble	101554 <prog+0x1510>
  101594:	ebfffe7c 	bl	100f8c <__sprint>
  101598:	e3500000 	cmp	r0, #0	; 0x0
  10159c:	1affff78 	bne	101384 <prog+0x1340>
  1015a0:	e2444010 	sub	r4, r4, #16	; 0x10
  1015a4:	e3540010 	cmp	r4, #16	; 0x10
  1015a8:	e28d8e61 	add	r8, sp, #1552	; 0x610
  1015ac:	e59d6680 	ldr	r6, [sp, #1664]
  1015b0:	e59d567c 	ldr	r5, [sp, #1660]
  1015b4:	caffffe9 	bgt	101560 <prog+0x151c>
  1015b8:	e2855001 	add	r5, r5, #1	; 0x1
  1015bc:	e0866004 	add	r6, r6, r4
  1015c0:	e3550007 	cmp	r5, #7	; 0x7
  1015c4:	e5889000 	str	r9, [r8]
  1015c8:	e5884004 	str	r4, [r8, #4]
  1015cc:	e58d6680 	str	r6, [sp, #1664]
  1015d0:	e58d567c 	str	r5, [sp, #1660]
  1015d4:	d2888008 	addle	r8, r8, #8	; 0x8
  1015d8:	da0000b3 	ble	1018ac <prog+0x1868>
  1015dc:	e28d1e67 	add	r1, sp, #1648	; 0x670
  1015e0:	e1a0000a 	mov	r0, sl
  1015e4:	e2811008 	add	r1, r1, #8	; 0x8
  1015e8:	ebfffe67 	bl	100f8c <__sprint>
  1015ec:	e3500000 	cmp	r0, #0	; 0x0
  1015f0:	1affff63 	bne	101384 <prog+0x1340>
  1015f4:	e59d6680 	ldr	r6, [sp, #1664]
  1015f8:	e59d567c 	ldr	r5, [sp, #1660]
  1015fc:	e28d8e61 	add	r8, sp, #1552	; 0x610
  101600:	ea0000a9 	b	1018ac <prog+0x1868>
  101604:	e59d1054 	ldr	r1, [sp, #84]
  101608:	e3811010 	orr	r1, r1, #16	; 0x10
  10160c:	e58d1054 	str	r1, [sp, #84]
  101610:	e59d2054 	ldr	r2, [sp, #84]
  101614:	e3120010 	tst	r2, #16	; 0x10
  101618:	1a000002 	bne	101628 <prog+0x15e4>
  10161c:	e59d3054 	ldr	r3, [sp, #84]
  101620:	e3130040 	tst	r3, #64	; 0x40
  101624:	1a00036b 	bne	1023d8 <prog+0x2394>
  101628:	e5991000 	ldr	r1, [r9]
  10162c:	e3a02001 	mov	r2, #1	; 0x1
  101630:	e2899004 	add	r9, r9, #4	; 0x4
  101634:	e58d9050 	str	r9, [sp, #80]
  101638:	eaffff8d 	b	101474 <prog+0x1430>
  10163c:	e26cc000 	rsb	ip, ip, #0	; 0x0
  101640:	e58dc024 	str	ip, [sp, #36]
  101644:	e1a09002 	mov	r9, r2
  101648:	e59d1018 	ldr	r1, [sp, #24]
  10164c:	e59d2054 	ldr	r2, [sp, #84]
  101650:	e5d13000 	ldrb	r3, [r1]
  101654:	e3822004 	orr	r2, r2, #4	; 0x4
  101658:	e58d2054 	str	r2, [sp, #84]
  10165c:	eafffed8 	b	1011c4 <_vfprintf_r+0x1f8>
  101660:	e5dd36af 	ldrb	r3, [sp, #1711]
  101664:	e3530000 	cmp	r3, #0	; 0x0
  101668:	0a000355 	beq	1023c4 <prog+0x2380>
  10166c:	e59d5018 	ldr	r5, [sp, #24]
  101670:	e5d53000 	ldrb	r3, [r5]
  101674:	eafffed2 	b	1011c4 <_vfprintf_r+0x1f8>
  101678:	e59d4018 	ldr	r4, [sp, #24]
  10167c:	e59d5054 	ldr	r5, [sp, #84]
  101680:	e5d43000 	ldrb	r3, [r4]
  101684:	e3855001 	orr	r5, r5, #1	; 0x1
  101688:	e58d5054 	str	r5, [sp, #84]
  10168c:	eafffecc 	b	1011c4 <_vfprintf_r+0x1f8>
  101690:	e599c000 	ldr	ip, [r9]
  101694:	e35c0000 	cmp	ip, #0	; 0x0
  101698:	e58dc024 	str	ip, [sp, #36]
  10169c:	e2892004 	add	r2, r9, #4	; 0x4
  1016a0:	baffffe5 	blt	10163c <prog+0x15f8>
  1016a4:	e59d4018 	ldr	r4, [sp, #24]
  1016a8:	e5d43000 	ldrb	r3, [r4]
  1016ac:	e1a09002 	mov	r9, r2
  1016b0:	eafffec3 	b	1011c4 <_vfprintf_r+0x1f8>
  1016b4:	e3a0302b 	mov	r3, #43	; 0x2b
  1016b8:	e5cd36af 	strb	r3, [sp, #1711]
  1016bc:	e59d4018 	ldr	r4, [sp, #24]
  1016c0:	e5d43000 	ldrb	r3, [r4]
  1016c4:	eafffebe 	b	1011c4 <_vfprintf_r+0x1f8>
  1016c8:	e59f4d28 	ldr	r4, [pc, #3368]	; 1023f8 <prog+0x23b4>
  1016cc:	e58d4040 	str	r4, [sp, #64]
  1016d0:	e59d5054 	ldr	r5, [sp, #84]
  1016d4:	e3150010 	tst	r5, #16	; 0x10
  1016d8:	1a000002 	bne	1016e8 <prog+0x16a4>
  1016dc:	e59dc054 	ldr	ip, [sp, #84]
  1016e0:	e31c0040 	tst	ip, #64	; 0x40
  1016e4:	1a000356 	bne	102444 <prog+0x2400>
  1016e8:	e5991000 	ldr	r1, [r9]
  1016ec:	e2899004 	add	r9, r9, #4	; 0x4
  1016f0:	e58d9050 	str	r9, [sp, #80]
  1016f4:	e59d3054 	ldr	r3, [sp, #84]
  1016f8:	e3510000 	cmp	r1, #0	; 0x0
  1016fc:	03a03000 	moveq	r3, #0	; 0x0
  101700:	12033001 	andne	r3, r3, #1	; 0x1
  101704:	e3530000 	cmp	r3, #0	; 0x0
  101708:	159d2054 	ldrne	r2, [sp, #84]
  10170c:	13822002 	orrne	r2, r2, #2	; 0x2
  101710:	158d2054 	strne	r2, [sp, #84]
  101714:	e3a02002 	mov	r2, #2	; 0x2
  101718:	eaffff55 	b	101474 <prog+0x1430>
  10171c:	e3570043 	cmp	r7, #67	; 0x43
  101720:	0a000002 	beq	101730 <prog+0x16ec>
  101724:	e59d1054 	ldr	r1, [sp, #84]
  101728:	e3110010 	tst	r1, #16	; 0x10
  10172c:	0a00037a 	beq	10251c <prog+0x24d8>
  101730:	e28d4d1a 	add	r4, sp, #1664	; 0x680
  101734:	e284400c 	add	r4, r4, #12	; 0xc
  101738:	e28d5e45 	add	r5, sp, #1104	; 0x450
  10173c:	e3a01000 	mov	r1, #0	; 0x0
  101740:	e3a02008 	mov	r2, #8	; 0x8
  101744:	e1a00004 	mov	r0, r4
  101748:	e2855008 	add	r5, r5, #8	; 0x8
  10174c:	ebfffd46 	bl	100c6c <memset>
  101750:	e1a03004 	mov	r3, r4
  101754:	e59d0010 	ldr	r0, [sp, #16]
  101758:	e1a01005 	mov	r1, r5
  10175c:	e5992000 	ldr	r2, [r9]
  101760:	eb0005eb 	bl	102f14 <_wcrtomb_r>
  101764:	e3700001 	cmn	r0, #1	; 0x1
  101768:	e1a0b000 	mov	fp, r0
  10176c:	0a000565 	beq	102d08 <prog+0x2cc4>
  101770:	e2899004 	add	r9, r9, #4	; 0x4
  101774:	e58d9050 	str	r9, [sp, #80]
  101778:	e35b0000 	cmp	fp, #0	; 0x0
  10177c:	a1a0200b 	movge	r2, fp
  101780:	b3a02000 	movlt	r2, #0	; 0x0
  101784:	e3a03000 	mov	r3, #0	; 0x0
  101788:	e58d203c 	str	r2, [sp, #60]
  10178c:	e58d501c 	str	r5, [sp, #28]
  101790:	e5cd36af 	strb	r3, [sp, #1711]
  101794:	ea000037 	b	101878 <prog+0x1834>
  101798:	e3760001 	cmn	r6, #1	; 0x1
  10179c:	02866007 	addeq	r6, r6, #7	; 0x7
  1017a0:	0a000002 	beq	1017b0 <prog+0x176c>
  1017a4:	e3570047 	cmp	r7, #71	; 0x47
  1017a8:	13570067 	cmpne	r7, #103	; 0x67
  1017ac:	0a000362 	beq	10253c <prog+0x24f8>
  1017b0:	e59dc054 	ldr	ip, [sp, #84]
  1017b4:	e31c0008 	tst	ip, #8	; 0x8
  1017b8:	0a0002fb 	beq	1023ac <prog+0x2368>
  1017bc:	e8990006 	ldmia	r9, {r1, r2}
  1017c0:	e2899008 	add	r9, r9, #8	; 0x8
  1017c4:	e58d1048 	str	r1, [sp, #72]
  1017c8:	e58d204c 	str	r2, [sp, #76]
  1017cc:	e58d9050 	str	r9, [sp, #80]
  1017d0:	e28d0048 	add	r0, sp, #72	; 0x48
  1017d4:	e8900003 	ldmia	r0, {r0, r1}
  1017d8:	eb00159e 	bl	106e58 <isinf>
  1017dc:	e2504000 	subs	r4, r0, #0	; 0x0
  1017e0:	0a0003c4 	beq	1026f8 <prog+0x26b4>
  1017e4:	e3a03000 	mov	r3, #0	; 0x0
  1017e8:	e28d0048 	add	r0, sp, #72	; 0x48
  1017ec:	e8900003 	ldmia	r0, {r0, r1}
  1017f0:	e3a02000 	mov	r2, #0	; 0x0
  1017f4:	eb001b70 	bl	1085bc <__ltdf2>
  1017f8:	e3500000 	cmp	r0, #0	; 0x0
  1017fc:	b3a0302d 	movlt	r3, #45	; 0x2d
  101800:	b5cd36af 	strltb	r3, [sp, #1711]
  101804:	e2473045 	sub	r3, r7, #69	; 0x45
  101808:	e3530002 	cmp	r3, #2	; 0x2
  10180c:	8a0003a8 	bhi	1026b4 <prog+0x2670>
  101810:	e3a03003 	mov	r3, #3	; 0x3
  101814:	e59f4be0 	ldr	r4, [pc, #3040]	; 1023fc <prog+0x23b8>
  101818:	e3a05000 	mov	r5, #0	; 0x0
  10181c:	e1a0b003 	mov	fp, r3
  101820:	e58d303c 	str	r3, [sp, #60]
  101824:	e58d401c 	str	r4, [sp, #28]
  101828:	e58d5038 	str	r5, [sp, #56]
  10182c:	eaffff33 	b	101500 <prog+0x14bc>
  101830:	e59d5018 	ldr	r5, [sp, #24]
  101834:	e59dc054 	ldr	ip, [sp, #84]
  101838:	e5d53000 	ldrb	r3, [r5]
  10183c:	e38cc040 	orr	ip, ip, #64	; 0x40
  101840:	e58dc054 	str	ip, [sp, #84]
  101844:	eafffe5e 	b	1011c4 <_vfprintf_r+0x1f8>
  101848:	e3570000 	cmp	r7, #0	; 0x0
  10184c:	0a000543 	beq	102d60 <prog+0x2d1c>
  101850:	e28d3e45 	add	r3, sp, #1104	; 0x450
  101854:	e2833008 	add	r3, r3, #8	; 0x8
  101858:	e3a02001 	mov	r2, #1	; 0x1
  10185c:	e58d301c 	str	r3, [sp, #28]
  101860:	e3a03000 	mov	r3, #0	; 0x0
  101864:	e58d203c 	str	r2, [sp, #60]
  101868:	e58d9050 	str	r9, [sp, #80]
  10186c:	e5cd36af 	strb	r3, [sp, #1711]
  101870:	e5cd7458 	strb	r7, [sp, #1112]
  101874:	e1a0b002 	mov	fp, r2
  101878:	e3a05000 	mov	r5, #0	; 0x0
  10187c:	e58d5038 	str	r5, [sp, #56]
  101880:	e59d2054 	ldr	r2, [sp, #84]
  101884:	e3120002 	tst	r2, #2	; 0x2
  101888:	159d303c 	ldrne	r3, [sp, #60]
  10188c:	e59d4054 	ldr	r4, [sp, #84]
  101890:	12833002 	addne	r3, r3, #2	; 0x2
  101894:	158d303c 	strne	r3, [sp, #60]
  101898:	e2144084 	ands	r4, r4, #132	; 0x84
  10189c:	e58d4014 	str	r4, [sp, #20]
  1018a0:	0affff20 	beq	101528 <prog+0x14e4>
  1018a4:	e59d6680 	ldr	r6, [sp, #1664]
  1018a8:	e59d567c 	ldr	r5, [sp, #1660]
  1018ac:	e5dd36af 	ldrb	r3, [sp, #1711]
  1018b0:	e3530000 	cmp	r3, #0	; 0x0
  1018b4:	0a000147 	beq	101dd8 <prog+0x1d94>
  1018b8:	e2855001 	add	r5, r5, #1	; 0x1
  1018bc:	e28d3e6a 	add	r3, sp, #1696	; 0x6a0
  1018c0:	e2866001 	add	r6, r6, #1	; 0x1
  1018c4:	e283300f 	add	r3, r3, #15	; 0xf
  1018c8:	e3a02001 	mov	r2, #1	; 0x1
  1018cc:	e3550007 	cmp	r5, #7	; 0x7
  1018d0:	e5883000 	str	r3, [r8]
  1018d4:	e5882004 	str	r2, [r8, #4]
  1018d8:	e58d6680 	str	r6, [sp, #1664]
  1018dc:	e58d567c 	str	r5, [sp, #1660]
  1018e0:	ca00014d 	bgt	101e1c <prog+0x1dd8>
  1018e4:	e2888008 	add	r8, r8, #8	; 0x8
  1018e8:	e59d2014 	ldr	r2, [sp, #20]
  1018ec:	e3520080 	cmp	r2, #128	; 0x80
  1018f0:	0a000155 	beq	101e4c <prog+0x1e08>
  1018f4:	e59d1038 	ldr	r1, [sp, #56]
  1018f8:	e06b4001 	rsb	r4, fp, r1
  1018fc:	e3540000 	cmp	r4, #0	; 0x0
  101900:	da00002e 	ble	1019c0 <prog+0x197c>
  101904:	e3540010 	cmp	r4, #16	; 0x10
  101908:	da000367 	ble	1026ac <prog+0x2668>
  10190c:	e59f9b0c 	ldr	r9, [pc, #2828]	; 102420 <prog+0x23dc>
  101910:	ea000002 	b	101920 <prog+0x18dc>
  101914:	e2444010 	sub	r4, r4, #16	; 0x10
  101918:	e3540010 	cmp	r4, #16	; 0x10
  10191c:	da000015 	ble	101978 <prog+0x1934>
  101920:	e2855001 	add	r5, r5, #1	; 0x1
  101924:	e28d1e67 	add	r1, sp, #1648	; 0x670
  101928:	e2866010 	add	r6, r6, #16	; 0x10
  10192c:	e3a03010 	mov	r3, #16	; 0x10
  101930:	e3550007 	cmp	r5, #7	; 0x7
  101934:	e5883004 	str	r3, [r8, #4]
  101938:	e5889000 	str	r9, [r8]
  10193c:	e1a0000a 	mov	r0, sl
  101940:	e2811008 	add	r1, r1, #8	; 0x8
  101944:	e2888008 	add	r8, r8, #8	; 0x8
  101948:	e58d6680 	str	r6, [sp, #1664]
  10194c:	e58d567c 	str	r5, [sp, #1660]
  101950:	daffffef 	ble	101914 <prog+0x18d0>
  101954:	ebfffd8c 	bl	100f8c <__sprint>
  101958:	e3500000 	cmp	r0, #0	; 0x0
  10195c:	1afffe88 	bne	101384 <prog+0x1340>
  101960:	e2444010 	sub	r4, r4, #16	; 0x10
  101964:	e3540010 	cmp	r4, #16	; 0x10
  101968:	e28d8e61 	add	r8, sp, #1552	; 0x610
  10196c:	e59d6680 	ldr	r6, [sp, #1664]
  101970:	e59d567c 	ldr	r5, [sp, #1660]
  101974:	caffffe9 	bgt	101920 <prog+0x18dc>
  101978:	e2855001 	add	r5, r5, #1	; 0x1
  10197c:	e0866004 	add	r6, r6, r4
  101980:	e3550007 	cmp	r5, #7	; 0x7
  101984:	e5889000 	str	r9, [r8]
  101988:	e5884004 	str	r4, [r8, #4]
  10198c:	e58d6680 	str	r6, [sp, #1664]
  101990:	e58d567c 	str	r5, [sp, #1660]
  101994:	d2888008 	addle	r8, r8, #8	; 0x8
  101998:	da000008 	ble	1019c0 <prog+0x197c>
  10199c:	e28d1e67 	add	r1, sp, #1648	; 0x670
  1019a0:	e1a0000a 	mov	r0, sl
  1019a4:	e2811008 	add	r1, r1, #8	; 0x8
  1019a8:	ebfffd77 	bl	100f8c <__sprint>
  1019ac:	e3500000 	cmp	r0, #0	; 0x0
  1019b0:	1afffe73 	bne	101384 <prog+0x1340>
  1019b4:	e59d6680 	ldr	r6, [sp, #1664]
  1019b8:	e59d567c 	ldr	r5, [sp, #1660]
  1019bc:	e28d8e61 	add	r8, sp, #1552	; 0x610
  1019c0:	e59d2054 	ldr	r2, [sp, #84]
  1019c4:	e3120c01 	tst	r2, #256	; 0x100
  1019c8:	1a000163 	bne	101f5c <prog+0x1f18>
  1019cc:	e2855001 	add	r5, r5, #1	; 0x1
  1019d0:	e59d301c 	ldr	r3, [sp, #28]
  1019d4:	e086600b 	add	r6, r6, fp
  1019d8:	e3550007 	cmp	r5, #7	; 0x7
  1019dc:	e8880808 	stmia	r8, {r3, fp}
  1019e0:	e58d6680 	str	r6, [sp, #1664]
  1019e4:	e58d567c 	str	r5, [sp, #1660]
  1019e8:	d288c008 	addle	ip, r8, #8	; 0x8
  1019ec:	ca0001c6 	bgt	10210c <prog+0x20c8>
  1019f0:	e59d1054 	ldr	r1, [sp, #84]
  1019f4:	e3110004 	tst	r1, #4	; 0x4
  1019f8:	0a000031 	beq	101ac4 <prog+0x1a80>
  1019fc:	e59d2024 	ldr	r2, [sp, #36]
  101a00:	e59d303c 	ldr	r3, [sp, #60]
  101a04:	e0634002 	rsb	r4, r3, r2
  101a08:	e3540000 	cmp	r4, #0	; 0x0
  101a0c:	da00002c 	ble	101ac4 <prog+0x1a80>
  101a10:	e3540010 	cmp	r4, #16	; 0x10
  101a14:	da000393 	ble	102868 <prog+0x2824>
  101a18:	e59d567c 	ldr	r5, [sp, #1660]
  101a1c:	e59f99f8 	ldr	r9, [pc, #2552]	; 10241c <prog+0x23d8>
  101a20:	ea000002 	b	101a30 <prog+0x19ec>
  101a24:	e2444010 	sub	r4, r4, #16	; 0x10
  101a28:	e3540010 	cmp	r4, #16	; 0x10
  101a2c:	da000015 	ble	101a88 <prog+0x1a44>
  101a30:	e2855001 	add	r5, r5, #1	; 0x1
  101a34:	e28d1e67 	add	r1, sp, #1648	; 0x670
  101a38:	e2866010 	add	r6, r6, #16	; 0x10
  101a3c:	e3a03010 	mov	r3, #16	; 0x10
  101a40:	e3550007 	cmp	r5, #7	; 0x7
  101a44:	e58c3004 	str	r3, [ip, #4]
  101a48:	e58c9000 	str	r9, [ip]
  101a4c:	e1a0000a 	mov	r0, sl
  101a50:	e2811008 	add	r1, r1, #8	; 0x8
  101a54:	e28cc008 	add	ip, ip, #8	; 0x8
  101a58:	e58d6680 	str	r6, [sp, #1664]
  101a5c:	e58d567c 	str	r5, [sp, #1660]
  101a60:	daffffef 	ble	101a24 <prog+0x19e0>
  101a64:	ebfffd48 	bl	100f8c <__sprint>
  101a68:	e3500000 	cmp	r0, #0	; 0x0
  101a6c:	1afffe44 	bne	101384 <prog+0x1340>
  101a70:	e2444010 	sub	r4, r4, #16	; 0x10
  101a74:	e3540010 	cmp	r4, #16	; 0x10
  101a78:	e28dce61 	add	ip, sp, #1552	; 0x610
  101a7c:	e59d6680 	ldr	r6, [sp, #1664]
  101a80:	e59d567c 	ldr	r5, [sp, #1660]
  101a84:	caffffe9 	bgt	101a30 <prog+0x19ec>
  101a88:	e2855001 	add	r5, r5, #1	; 0x1
  101a8c:	e0866004 	add	r6, r6, r4
  101a90:	e3550007 	cmp	r5, #7	; 0x7
  101a94:	e58c9000 	str	r9, [ip]
  101a98:	e58c4004 	str	r4, [ip, #4]
  101a9c:	e58d6680 	str	r6, [sp, #1664]
  101aa0:	e58d567c 	str	r5, [sp, #1660]
  101aa4:	da000006 	ble	101ac4 <prog+0x1a80>
  101aa8:	e28d1e67 	add	r1, sp, #1648	; 0x670
  101aac:	e1a0000a 	mov	r0, sl
  101ab0:	e2811008 	add	r1, r1, #8	; 0x8
  101ab4:	ebfffd34 	bl	100f8c <__sprint>
  101ab8:	e3500000 	cmp	r0, #0	; 0x0
  101abc:	1afffe30 	bne	101384 <prog+0x1340>
  101ac0:	e59d6680 	ldr	r6, [sp, #1664]
  101ac4:	e28d4020 	add	r4, sp, #32	; 0x20
  101ac8:	e8940030 	ldmia	r4, {r4, r5}
  101acc:	e59d803c 	ldr	r8, [sp, #60]
  101ad0:	e1550008 	cmp	r5, r8
  101ad4:	a0844005 	addge	r4, r4, r5
  101ad8:	b0844008 	addlt	r4, r4, r8
  101adc:	e3560000 	cmp	r6, #0	; 0x0
  101ae0:	e58d4020 	str	r4, [sp, #32]
  101ae4:	1afffe20 	bne	10136c <prog+0x1328>
  101ae8:	e59dc044 	ldr	ip, [sp, #68]
  101aec:	e3a05000 	mov	r5, #0	; 0x0
  101af0:	e35c0000 	cmp	ip, #0	; 0x0
  101af4:	e58d567c 	str	r5, [sp, #1660]
  101af8:	028d8e61 	addeq	r8, sp, #1552	; 0x610
  101afc:	0a000004 	beq	101b14 <prog+0x1ad0>
  101b00:	e1a0100c 	mov	r1, ip
  101b04:	e59d0010 	ldr	r0, [sp, #16]
  101b08:	eb000d6f 	bl	1050cc <_free_r>
  101b0c:	e58d5044 	str	r5, [sp, #68]
  101b10:	e28d8e61 	add	r8, sp, #1552	; 0x610
  101b14:	e59d9050 	ldr	r9, [sp, #80]
  101b18:	eafffd80 	b	101120 <_vfprintf_r+0x154>
  101b1c:	e59f18dc 	ldr	r1, [pc, #2268]	; 102400 <prog+0x23bc>
  101b20:	e58d1040 	str	r1, [sp, #64]
  101b24:	eafffee9 	b	1016d0 <prog+0x168c>
  101b28:	e59dc054 	ldr	ip, [sp, #84]
  101b2c:	e5991000 	ldr	r1, [r9]
  101b30:	e59f58c8 	ldr	r5, [pc, #2248]	; 102400 <prog+0x23bc>
  101b34:	e38cc002 	orr	ip, ip, #2	; 0x2
  101b38:	e2899004 	add	r9, r9, #4	; 0x4
  101b3c:	e3a07078 	mov	r7, #120	; 0x78
  101b40:	e3a02002 	mov	r2, #2	; 0x2
  101b44:	e58d5040 	str	r5, [sp, #64]
  101b48:	e58dc054 	str	ip, [sp, #84]
  101b4c:	e58d9050 	str	r9, [sp, #80]
  101b50:	eafffe47 	b	101474 <prog+0x1430>
  101b54:	e59d5018 	ldr	r5, [sp, #24]
  101b58:	e59dc054 	ldr	ip, [sp, #84]
  101b5c:	e5d53000 	ldrb	r3, [r5]
  101b60:	e38cc010 	orr	ip, ip, #16	; 0x10
  101b64:	e58dc054 	str	ip, [sp, #84]
  101b68:	eafffd95 	b	1011c4 <_vfprintf_r+0x1f8>
  101b6c:	e3a04000 	mov	r4, #0	; 0x0
  101b70:	e5cd46af 	strb	r4, [sp, #1711]
  101b74:	e5991000 	ldr	r1, [r9]
  101b78:	e2899004 	add	r9, r9, #4	; 0x4
  101b7c:	e1510004 	cmp	r1, r4
  101b80:	e58d101c 	str	r1, [sp, #28]
  101b84:	e58d9050 	str	r9, [sp, #80]
  101b88:	0a000330 	beq	102850 <prog+0x280c>
  101b8c:	e3570053 	cmp	r7, #83	; 0x53
  101b90:	0a000002 	beq	101ba0 <prog+0x1b5c>
  101b94:	e59d2054 	ldr	r2, [sp, #84]
  101b98:	e2125010 	ands	r5, r2, #16	; 0x10
  101b9c:	0a000269 	beq	102548 <prog+0x2504>
  101ba0:	e28d9d1a 	add	r9, sp, #1664	; 0x680
  101ba4:	e59d301c 	ldr	r3, [sp, #28]
  101ba8:	e2899004 	add	r9, r9, #4	; 0x4
  101bac:	e1a00009 	mov	r0, r9
  101bb0:	e1a01004 	mov	r1, r4
  101bb4:	e3a02008 	mov	r2, #8	; 0x8
  101bb8:	e58d36a4 	str	r3, [sp, #1700]
  101bbc:	ebfffc2a 	bl	100c6c <memset>
  101bc0:	e3560000 	cmp	r6, #0	; 0x0
  101bc4:	ba000443 	blt	102cd8 <prog+0x2c94>
  101bc8:	e28d5e45 	add	r5, sp, #1104	; 0x450
  101bcc:	e1a0b004 	mov	fp, r4
  101bd0:	e2855008 	add	r5, r5, #8	; 0x8
  101bd4:	e59d36a4 	ldr	r3, [sp, #1700]
  101bd8:	e793c004 	ldr	ip, [r3, r4]
  101bdc:	e35c0000 	cmp	ip, #0	; 0x0
  101be0:	e1a0200c 	mov	r2, ip
  101be4:	e59d0010 	ldr	r0, [sp, #16]
  101be8:	e1a01005 	mov	r1, r5
  101bec:	e1a03009 	mov	r3, r9
  101bf0:	0a000009 	beq	101c1c <prog+0x1bd8>
  101bf4:	eb0004c6 	bl	102f14 <_wcrtomb_r>
  101bf8:	e3700001 	cmn	r0, #1	; 0x1
  101bfc:	e08b3000 	add	r3, fp, r0
  101c00:	0a000440 	beq	102d08 <prog+0x2cc4>
  101c04:	e1560003 	cmp	r6, r3
  101c08:	ba000003 	blt	101c1c <prog+0x1bd8>
  101c0c:	e1a0b003 	mov	fp, r3
  101c10:	e2844004 	add	r4, r4, #4	; 0x4
  101c14:	1affffee 	bne	101bd4 <prog+0x1b90>
  101c18:	e1a0b006 	mov	fp, r6
  101c1c:	e35b0000 	cmp	fp, #0	; 0x0
  101c20:	058db038 	streq	fp, [sp, #56]
  101c24:	058db03c 	streq	fp, [sp, #60]
  101c28:	0afffe34 	beq	101500 <prog+0x14bc>
  101c2c:	e59d0010 	ldr	r0, [sp, #16]
  101c30:	e28b1001 	add	r1, fp, #1	; 0x1
  101c34:	ebfffa08 	bl	10045c <_malloc_r>
  101c38:	e3500000 	cmp	r0, #0	; 0x0
  101c3c:	0a000431 	beq	102d08 <prog+0x2cc4>
  101c40:	e58d0044 	str	r0, [sp, #68]
  101c44:	e3a01000 	mov	r1, #0	; 0x0
  101c48:	e3a02008 	mov	r2, #8	; 0x8
  101c4c:	e1a00009 	mov	r0, r9
  101c50:	ebfffc05 	bl	100c6c <memset>
  101c54:	e28d2e6a 	add	r2, sp, #1696	; 0x6a0
  101c58:	e59d0010 	ldr	r0, [sp, #16]
  101c5c:	e59d1044 	ldr	r1, [sp, #68]
  101c60:	e2822004 	add	r2, r2, #4	; 0x4
  101c64:	e1a0300b 	mov	r3, fp
  101c68:	e58d9000 	str	r9, [sp]
  101c6c:	eb0004c8 	bl	102f94 <_wcsrtombs_r>
  101c70:	e15b0000 	cmp	fp, r0
  101c74:	1a000492 	bne	102ec4 <prog+0x2e80>
  101c78:	e3a03000 	mov	r3, #0	; 0x0
  101c7c:	e59dc044 	ldr	ip, [sp, #68]
  101c80:	e15b0003 	cmp	fp, r3
  101c84:	a1a0500b 	movge	r5, fp
  101c88:	b1a05003 	movlt	r5, r3
  101c8c:	e58d503c 	str	r5, [sp, #60]
  101c90:	e58d3038 	str	r3, [sp, #56]
  101c94:	e58dc01c 	str	ip, [sp, #28]
  101c98:	e7cc300b 	strb	r3, [ip, fp]
  101c9c:	eafffe17 	b	101500 <prog+0x14bc>
  101ca0:	e59d1018 	ldr	r1, [sp, #24]
  101ca4:	e5d13000 	ldrb	r3, [r1]
  101ca8:	e353006c 	cmp	r3, #108	; 0x6c
  101cac:	059d2054 	ldreq	r2, [sp, #84]
  101cb0:	159d4054 	ldrne	r4, [sp, #84]
  101cb4:	05f13001 	ldreqb	r3, [r1, #1]!
  101cb8:	03822010 	orreq	r2, r2, #16	; 0x10
  101cbc:	13844010 	orrne	r4, r4, #16	; 0x10
  101cc0:	058d1018 	streq	r1, [sp, #24]
  101cc4:	058d2054 	streq	r2, [sp, #84]
  101cc8:	158d4054 	strne	r4, [sp, #84]
  101ccc:	eafffd3c 	b	1011c4 <_vfprintf_r+0x1f8>
  101cd0:	e59d3054 	ldr	r3, [sp, #84]
  101cd4:	e3130010 	tst	r3, #16	; 0x10
  101cd8:	1a0001df 	bne	10245c <prog+0x2418>
  101cdc:	e59d5054 	ldr	r5, [sp, #84]
  101ce0:	e3150040 	tst	r5, #64	; 0x40
  101ce4:	15993000 	ldrne	r3, [r9]
  101ce8:	05993000 	ldreq	r3, [r9]
  101cec:	12899004 	addne	r9, r9, #4	; 0x4
  101cf0:	02899004 	addeq	r9, r9, #4	; 0x4
  101cf4:	158d9050 	strne	r9, [sp, #80]
  101cf8:	058d9050 	streq	r9, [sp, #80]
  101cfc:	159dc020 	ldrne	ip, [sp, #32]
  101d00:	059d1020 	ldreq	r1, [sp, #32]
  101d04:	e59d9050 	ldr	r9, [sp, #80]
  101d08:	11c3c0b0 	strneh	ip, [r3]
  101d0c:	05831000 	streq	r1, [r3]
  101d10:	eafffd02 	b	101120 <_vfprintf_r+0x154>
  101d14:	e59d2018 	ldr	r2, [sp, #24]
  101d18:	e59d4054 	ldr	r4, [sp, #84]
  101d1c:	e5d23000 	ldrb	r3, [r2]
  101d20:	e3844008 	orr	r4, r4, #8	; 0x8
  101d24:	e58d4054 	str	r4, [sp, #84]
  101d28:	eafffd25 	b	1011c4 <_vfprintf_r+0x1f8>
  101d2c:	e59d5018 	ldr	r5, [sp, #24]
  101d30:	e59dc054 	ldr	ip, [sp, #84]
  101d34:	e5d53000 	ldrb	r3, [r5]
  101d38:	e38cc080 	orr	ip, ip, #128	; 0x80
  101d3c:	e58dc054 	str	ip, [sp, #84]
  101d40:	eafffd1f 	b	1011c4 <_vfprintf_r+0x1f8>
  101d44:	e3a03000 	mov	r3, #0	; 0x0
  101d48:	e59d1018 	ldr	r1, [sp, #24]
  101d4c:	e0832103 	add	r2, r3, r3, lsl #2
  101d50:	e0872082 	add	r2, r7, r2, lsl #1
  101d54:	e4d17001 	ldrb	r7, [r1], #1
  101d58:	e2473030 	sub	r3, r7, #48	; 0x30
  101d5c:	e3530009 	cmp	r3, #9	; 0x9
  101d60:	e58d1018 	str	r1, [sp, #24]
  101d64:	e2423030 	sub	r3, r2, #48	; 0x30
  101d68:	9afffff6 	bls	101d48 <prog+0x1d04>
  101d6c:	e58d3024 	str	r3, [sp, #36]
  101d70:	eafffd17 	b	1011d4 <_vfprintf_r+0x208>
  101d74:	e59d2018 	ldr	r2, [sp, #24]
  101d78:	e4d23001 	ldrb	r3, [r2], #1
  101d7c:	e353002a 	cmp	r3, #42	; 0x2a
  101d80:	0a000439 	beq	102e6c <prog+0x2e28>
  101d84:	e1a07003 	mov	r7, r3
  101d88:	e2433030 	sub	r3, r3, #48	; 0x30
  101d8c:	e3530009 	cmp	r3, #9	; 0x9
  101d90:	83a06000 	movhi	r6, #0	; 0x0
  101d94:	8a00000d 	bhi	101dd0 <prog+0x1d8c>
  101d98:	e59d1018 	ldr	r1, [sp, #24]
  101d9c:	e3a02000 	mov	r2, #0	; 0x0
  101da0:	e0822102 	add	r2, r2, r2, lsl #2
  101da4:	e0872082 	add	r2, r7, r2, lsl #1
  101da8:	e5f17001 	ldrb	r7, [r1, #1]!
  101dac:	e2473030 	sub	r3, r7, #48	; 0x30
  101db0:	e3530009 	cmp	r3, #9	; 0x9
  101db4:	e2422030 	sub	r2, r2, #48	; 0x30
  101db8:	9afffff8 	bls	101da0 <prog+0x1d5c>
  101dbc:	e3e03000 	mvn	r3, #0	; 0x0
  101dc0:	e1520003 	cmp	r2, r3
  101dc4:	a1a06002 	movge	r6, r2
  101dc8:	b1a06003 	movlt	r6, r3
  101dcc:	e2812001 	add	r2, r1, #1	; 0x1
  101dd0:	e58d2018 	str	r2, [sp, #24]
  101dd4:	eafffcfe 	b	1011d4 <_vfprintf_r+0x208>
  101dd8:	e59d1054 	ldr	r1, [sp, #84]
  101ddc:	e3110002 	tst	r1, #2	; 0x2
  101de0:	0afffec0 	beq	1018e8 <prog+0x18a4>
  101de4:	e3a03030 	mov	r3, #48	; 0x30
  101de8:	e5cd36ad 	strb	r3, [sp, #1709]
  101dec:	e2855001 	add	r5, r5, #1	; 0x1
  101df0:	e28d3e6a 	add	r3, sp, #1696	; 0x6a0
  101df4:	e2866002 	add	r6, r6, #2	; 0x2
  101df8:	e283300d 	add	r3, r3, #13	; 0xd
  101dfc:	e3a02002 	mov	r2, #2	; 0x2
  101e00:	e3550007 	cmp	r5, #7	; 0x7
  101e04:	e5cd76ae 	strb	r7, [sp, #1710]
  101e08:	e58d6680 	str	r6, [sp, #1664]
  101e0c:	e5883000 	str	r3, [r8]
  101e10:	e5882004 	str	r2, [r8, #4]
  101e14:	e58d567c 	str	r5, [sp, #1660]
  101e18:	dafffeb1 	ble	1018e4 <prog+0x18a0>
  101e1c:	e28d1e67 	add	r1, sp, #1648	; 0x670
  101e20:	e1a0000a 	mov	r0, sl
  101e24:	e2811008 	add	r1, r1, #8	; 0x8
  101e28:	ebfffc57 	bl	100f8c <__sprint>
  101e2c:	e3500000 	cmp	r0, #0	; 0x0
  101e30:	1afffd53 	bne	101384 <prog+0x1340>
  101e34:	e59d2014 	ldr	r2, [sp, #20]
  101e38:	e3520080 	cmp	r2, #128	; 0x80
  101e3c:	e59d6680 	ldr	r6, [sp, #1664]
  101e40:	e59d567c 	ldr	r5, [sp, #1660]
  101e44:	e28d8e61 	add	r8, sp, #1552	; 0x610
  101e48:	1afffea9 	bne	1018f4 <prog+0x18b0>
  101e4c:	e59d3024 	ldr	r3, [sp, #36]
  101e50:	e59dc03c 	ldr	ip, [sp, #60]
  101e54:	e06c4003 	rsb	r4, ip, r3
  101e58:	e3540000 	cmp	r4, #0	; 0x0
  101e5c:	dafffea4 	ble	1018f4 <prog+0x18b0>
  101e60:	e3540010 	cmp	r4, #16	; 0x10
  101e64:	da00032e 	ble	102b24 <prog+0x2ae0>
  101e68:	e59f95b0 	ldr	r9, [pc, #1456]	; 102420 <prog+0x23dc>
  101e6c:	ea000002 	b	101e7c <prog+0x1e38>
  101e70:	e2444010 	sub	r4, r4, #16	; 0x10
  101e74:	e3540010 	cmp	r4, #16	; 0x10
  101e78:	da000015 	ble	101ed4 <prog+0x1e90>
  101e7c:	e2855001 	add	r5, r5, #1	; 0x1
  101e80:	e28d1e67 	add	r1, sp, #1648	; 0x670
  101e84:	e2866010 	add	r6, r6, #16	; 0x10
  101e88:	e3a03010 	mov	r3, #16	; 0x10
  101e8c:	e3550007 	cmp	r5, #7	; 0x7
  101e90:	e5883004 	str	r3, [r8, #4]
  101e94:	e5889000 	str	r9, [r8]
  101e98:	e1a0000a 	mov	r0, sl
  101e9c:	e2811008 	add	r1, r1, #8	; 0x8
  101ea0:	e2888008 	add	r8, r8, #8	; 0x8
  101ea4:	e58d6680 	str	r6, [sp, #1664]
  101ea8:	e58d567c 	str	r5, [sp, #1660]
  101eac:	daffffef 	ble	101e70 <prog+0x1e2c>
  101eb0:	ebfffc35 	bl	100f8c <__sprint>
  101eb4:	e3500000 	cmp	r0, #0	; 0x0
  101eb8:	1afffd31 	bne	101384 <prog+0x1340>
  101ebc:	e2444010 	sub	r4, r4, #16	; 0x10
  101ec0:	e3540010 	cmp	r4, #16	; 0x10
  101ec4:	e28d8e61 	add	r8, sp, #1552	; 0x610
  101ec8:	e59d6680 	ldr	r6, [sp, #1664]
  101ecc:	e59d567c 	ldr	r5, [sp, #1660]
  101ed0:	caffffe9 	bgt	101e7c <prog+0x1e38>
  101ed4:	e2855001 	add	r5, r5, #1	; 0x1
  101ed8:	e0866004 	add	r6, r6, r4
  101edc:	e3550007 	cmp	r5, #7	; 0x7
  101ee0:	e5889000 	str	r9, [r8]
  101ee4:	e5884004 	str	r4, [r8, #4]
  101ee8:	e58d6680 	str	r6, [sp, #1664]
  101eec:	e58d567c 	str	r5, [sp, #1660]
  101ef0:	d2888008 	addle	r8, r8, #8	; 0x8
  101ef4:	dafffe7e 	ble	1018f4 <prog+0x18b0>
  101ef8:	e28d1e67 	add	r1, sp, #1648	; 0x670
  101efc:	e1a0000a 	mov	r0, sl
  101f00:	e2811008 	add	r1, r1, #8	; 0x8
  101f04:	ebfffc20 	bl	100f8c <__sprint>
  101f08:	e3500000 	cmp	r0, #0	; 0x0
  101f0c:	1afffd1c 	bne	101384 <prog+0x1340>
  101f10:	e59d6680 	ldr	r6, [sp, #1664]
  101f14:	e59d567c 	ldr	r5, [sp, #1660]
  101f18:	e28d8e61 	add	r8, sp, #1552	; 0x610
  101f1c:	eafffe74 	b	1018f4 <prog+0x18b0>
  101f20:	e2013007 	and	r3, r1, #7	; 0x7
  101f24:	e2833030 	add	r3, r3, #48	; 0x30
  101f28:	e1b011a1 	movs	r1, r1, lsr #3
  101f2c:	e5603001 	strb	r3, [r0, #-1]!
  101f30:	1afffffa 	bne	101f20 <prog+0x1edc>
  101f34:	e59d5054 	ldr	r5, [sp, #84]
  101f38:	e3150001 	tst	r5, #1	; 0x1
  101f3c:	e58d001c 	str	r0, [sp, #28]
  101f40:	0afffd64 	beq	1014d8 <prog+0x1494>
  101f44:	e3530030 	cmp	r3, #48	; 0x30
  101f48:	11a0c000 	movne	ip, r0
  101f4c:	13a03030 	movne	r3, #48	; 0x30
  101f50:	156c3001 	strneb	r3, [ip, #-1]!
  101f54:	158dc01c 	strne	ip, [sp, #28]
  101f58:	eafffd5e 	b	1014d8 <prog+0x1494>
  101f5c:	e3570065 	cmp	r7, #101	; 0x65
  101f60:	da000072 	ble	102130 <prog+0x20ec>
  101f64:	e28d0048 	add	r0, sp, #72	; 0x48
  101f68:	e8900003 	ldmia	r0, {r0, r1}
  101f6c:	e3a02000 	mov	r2, #0	; 0x0
  101f70:	e3a03000 	mov	r3, #0	; 0x0
  101f74:	eb001908 	bl	10839c <__eqdf2>
  101f78:	e3500000 	cmp	r0, #0	; 0x0
  101f7c:	1a00003a 	bne	10206c <prog+0x2028>
  101f80:	e2855001 	add	r5, r5, #1	; 0x1
  101f84:	e59f3488 	ldr	r3, [pc, #1160]	; 102414 <prog+0x23d0>
  101f88:	e3550007 	cmp	r5, #7	; 0x7
  101f8c:	e2866001 	add	r6, r6, #1	; 0x1
  101f90:	e3a02001 	mov	r2, #1	; 0x1
  101f94:	e5883000 	str	r3, [r8]
  101f98:	e5882004 	str	r2, [r8, #4]
  101f9c:	e58d6680 	str	r6, [sp, #1664]
  101fa0:	e58d567c 	str	r5, [sp, #1660]
  101fa4:	d288c008 	addle	ip, r8, #8	; 0x8
  101fa8:	ca0001c9 	bgt	1026d4 <prog+0x2690>
  101fac:	e59d36a8 	ldr	r3, [sp, #1704]
  101fb0:	e59d4034 	ldr	r4, [sp, #52]
  101fb4:	e1530004 	cmp	r3, r4
  101fb8:	aa0000f7 	bge	10239c <prog+0x2358>
  101fbc:	e59d567c 	ldr	r5, [sp, #1660]
  101fc0:	e59d8028 	ldr	r8, [sp, #40]
  101fc4:	e2855001 	add	r5, r5, #1	; 0x1
  101fc8:	e3550007 	cmp	r5, #7	; 0x7
  101fcc:	e2866001 	add	r6, r6, #1	; 0x1
  101fd0:	e3a03001 	mov	r3, #1	; 0x1
  101fd4:	e58c3004 	str	r3, [ip, #4]
  101fd8:	e58c8000 	str	r8, [ip]
  101fdc:	e58d6680 	str	r6, [sp, #1664]
  101fe0:	e58d567c 	str	r5, [sp, #1660]
  101fe4:	d28cc008 	addle	ip, ip, #8	; 0x8
  101fe8:	ca0001d1 	bgt	102734 <prog+0x26f0>
  101fec:	e59d1034 	ldr	r1, [sp, #52]
  101ff0:	e2414001 	sub	r4, r1, #1	; 0x1
  101ff4:	e3540000 	cmp	r4, #0	; 0x0
  101ff8:	dafffe7c 	ble	1019f0 <prog+0x19ac>
  101ffc:	e3540010 	cmp	r4, #16	; 0x10
  102000:	da00018f 	ble	102644 <prog+0x2600>
  102004:	e59d567c 	ldr	r5, [sp, #1660]
  102008:	e59f9410 	ldr	r9, [pc, #1040]	; 102420 <prog+0x23dc>
  10200c:	ea000002 	b	10201c <prog+0x1fd8>
  102010:	e2444010 	sub	r4, r4, #16	; 0x10
  102014:	e3540010 	cmp	r4, #16	; 0x10
  102018:	da00018b 	ble	10264c <prog+0x2608>
  10201c:	e2855001 	add	r5, r5, #1	; 0x1
  102020:	e28d1e67 	add	r1, sp, #1648	; 0x670
  102024:	e2866010 	add	r6, r6, #16	; 0x10
  102028:	e3a03010 	mov	r3, #16	; 0x10
  10202c:	e3550007 	cmp	r5, #7	; 0x7
  102030:	e58c3004 	str	r3, [ip, #4]
  102034:	e58c9000 	str	r9, [ip]
  102038:	e1a0000a 	mov	r0, sl
  10203c:	e2811008 	add	r1, r1, #8	; 0x8
  102040:	e28cc008 	add	ip, ip, #8	; 0x8
  102044:	e58d6680 	str	r6, [sp, #1664]
  102048:	e58d567c 	str	r5, [sp, #1660]
  10204c:	daffffef 	ble	102010 <prog+0x1fcc>
  102050:	ebfffbcd 	bl	100f8c <__sprint>
  102054:	e3500000 	cmp	r0, #0	; 0x0
  102058:	1afffcc9 	bne	101384 <prog+0x1340>
  10205c:	e59d6680 	ldr	r6, [sp, #1664]
  102060:	e59d567c 	ldr	r5, [sp, #1660]
  102064:	e28dce61 	add	ip, sp, #1552	; 0x610
  102068:	eaffffe8 	b	102010 <prog+0x1fcc>
  10206c:	e59d06a8 	ldr	r0, [sp, #1704]
  102070:	e3500000 	cmp	r0, #0	; 0x0
  102074:	da0001bb 	ble	102768 <prog+0x2724>
  102078:	e59dc034 	ldr	ip, [sp, #52]
  10207c:	e150000c 	cmp	r0, ip
  102080:	aa0000fc 	bge	102478 <prog+0x2434>
  102084:	e2855001 	add	r5, r5, #1	; 0x1
  102088:	e59d401c 	ldr	r4, [sp, #28]
  10208c:	e0866000 	add	r6, r6, r0
  102090:	e3550007 	cmp	r5, #7	; 0x7
  102094:	e5884000 	str	r4, [r8]
  102098:	e5880004 	str	r0, [r8, #4]
  10209c:	e58d6680 	str	r6, [sp, #1664]
  1020a0:	e58d567c 	str	r5, [sp, #1660]
  1020a4:	d2881008 	addle	r1, r8, #8	; 0x8
  1020a8:	ca000288 	bgt	102ad0 <prog+0x2a8c>
  1020ac:	e2855001 	add	r5, r5, #1	; 0x1
  1020b0:	e59f3350 	ldr	r3, [pc, #848]	; 102408 <prog+0x23c4>
  1020b4:	e2866001 	add	r6, r6, #1	; 0x1
  1020b8:	e3550007 	cmp	r5, #7	; 0x7
  1020bc:	e3a02001 	mov	r2, #1	; 0x1
  1020c0:	e5813000 	str	r3, [r1]
  1020c4:	e5812004 	str	r2, [r1, #4]
  1020c8:	e58d6680 	str	r6, [sp, #1664]
  1020cc:	e58d567c 	str	r5, [sp, #1660]
  1020d0:	e1a04000 	mov	r4, r0
  1020d4:	d281c008 	addle	ip, r1, #8	; 0x8
  1020d8:	ca000271 	bgt	102aa4 <prog+0x2a60>
  1020dc:	e59d8034 	ldr	r8, [sp, #52]
  1020e0:	e59d101c 	ldr	r1, [sp, #28]
  1020e4:	e0602008 	rsb	r2, r0, r8
  1020e8:	e2855001 	add	r5, r5, #1	; 0x1
  1020ec:	e0843001 	add	r3, r4, r1
  1020f0:	e0866002 	add	r6, r6, r2
  1020f4:	e3550007 	cmp	r5, #7	; 0x7
  1020f8:	e58c3000 	str	r3, [ip]
  1020fc:	e58c2004 	str	r2, [ip, #4]
  102100:	e58d6680 	str	r6, [sp, #1664]
  102104:	e58d567c 	str	r5, [sp, #1660]
  102108:	da000141 	ble	102614 <prog+0x25d0>
  10210c:	e28d1e67 	add	r1, sp, #1648	; 0x670
  102110:	e1a0000a 	mov	r0, sl
  102114:	e2811008 	add	r1, r1, #8	; 0x8
  102118:	ebfffb9b 	bl	100f8c <__sprint>
  10211c:	e3500000 	cmp	r0, #0	; 0x0
  102120:	1afffc97 	bne	101384 <prog+0x1340>
  102124:	e59d6680 	ldr	r6, [sp, #1664]
  102128:	e28dce61 	add	ip, sp, #1552	; 0x610
  10212c:	eafffe2f 	b	1019f0 <prog+0x19ac>
  102130:	e59d2034 	ldr	r2, [sp, #52]
  102134:	e3520001 	cmp	r2, #1	; 0x1
  102138:	da00014d 	ble	102674 <prog+0x2630>
  10213c:	e59d401c 	ldr	r4, [sp, #28]
  102140:	e5d42000 	ldrb	r2, [r4]
  102144:	e2855001 	add	r5, r5, #1	; 0x1
  102148:	e5cd26ad 	strb	r2, [sp, #1709]
  10214c:	e3a0302e 	mov	r3, #46	; 0x2e
  102150:	e28d2e6a 	add	r2, sp, #1696	; 0x6a0
  102154:	e5cd36ae 	strb	r3, [sp, #1710]
  102158:	e2866002 	add	r6, r6, #2	; 0x2
  10215c:	e3550007 	cmp	r5, #7	; 0x7
  102160:	e282200d 	add	r2, r2, #13	; 0xd
  102164:	e243302c 	sub	r3, r3, #44	; 0x2c
  102168:	e888000c 	stmia	r8, {r2, r3}
  10216c:	e58d6680 	str	r6, [sp, #1664]
  102170:	e58d567c 	str	r5, [sp, #1660]
  102174:	d2884008 	addle	r4, r8, #8	; 0x8
  102178:	ca00007d 	bgt	102374 <prog+0x2330>
  10217c:	e28d0048 	add	r0, sp, #72	; 0x48
  102180:	e8900003 	ldmia	r0, {r0, r1}
  102184:	e3a02000 	mov	r2, #0	; 0x0
  102188:	e3a03000 	mov	r3, #0	; 0x0
  10218c:	eb0018a4 	bl	108424 <__nedf2>
  102190:	e3500000 	cmp	r0, #0	; 0x0
  102194:	0a000038 	beq	10227c <prog+0x2238>
  102198:	e59d8034 	ldr	r8, [sp, #52]
  10219c:	e59dc01c 	ldr	ip, [sp, #28]
  1021a0:	e2855001 	add	r5, r5, #1	; 0x1
  1021a4:	e0883006 	add	r3, r8, r6
  1021a8:	e2436001 	sub	r6, r3, #1	; 0x1
  1021ac:	e28c2001 	add	r2, ip, #1	; 0x1
  1021b0:	e2483001 	sub	r3, r8, #1	; 0x1
  1021b4:	e3550007 	cmp	r5, #7	; 0x7
  1021b8:	e884000c 	stmia	r4, {r2, r3}
  1021bc:	e58d6680 	str	r6, [sp, #1664]
  1021c0:	e58d567c 	str	r5, [sp, #1660]
  1021c4:	ca000060 	bgt	10234c <prog+0x2308>
  1021c8:	e2844008 	add	r4, r4, #8	; 0x8
  1021cc:	e59d3030 	ldr	r3, [sp, #48]
  1021d0:	e2855001 	add	r5, r5, #1	; 0x1
  1021d4:	e0866003 	add	r6, r6, r3
  1021d8:	e59d8030 	ldr	r8, [sp, #48]
  1021dc:	e28d3e69 	add	r3, sp, #1680	; 0x690
  1021e0:	e3550007 	cmp	r5, #7	; 0x7
  1021e4:	e2833005 	add	r3, r3, #5	; 0x5
  1021e8:	e8840108 	stmia	r4, {r3, r8}
  1021ec:	e58d6680 	str	r6, [sp, #1664]
  1021f0:	e58d567c 	str	r5, [sp, #1660]
  1021f4:	d284c008 	addle	ip, r4, #8	; 0x8
  1021f8:	dafffdfc 	ble	1019f0 <prog+0x19ac>
  1021fc:	eaffffc2 	b	10210c <prog+0x20c8>
  102200:	e28d1e67 	add	r1, sp, #1648	; 0x670
  102204:	e1a0000a 	mov	r0, sl
  102208:	e2811008 	add	r1, r1, #8	; 0x8
  10220c:	ebfffb5e 	bl	100f8c <__sprint>
  102210:	e3500000 	cmp	r0, #0	; 0x0
  102214:	1afffc60 	bne	10139c <prog+0x1358>
  102218:	e28d8e61 	add	r8, sp, #1552	; 0x610
  10221c:	eafffbd9 	b	101188 <_vfprintf_r+0x1bc>
  102220:	e3510009 	cmp	r1, #9	; 0x9
  102224:	928d4e5b 	addls	r4, sp, #1456	; 0x5b0
  102228:	92844003 	addls	r4, r4, #3	; 0x3
  10222c:	958d401c 	strls	r4, [sp, #28]
  102230:	9a00000d 	bls	10226c <prog+0x2228>
  102234:	e28d0e5b 	add	r0, sp, #1456	; 0x5b0
  102238:	e59fc1c4 	ldr	ip, [pc, #452]	; 102404 <prog+0x23c0>
  10223c:	e2800004 	add	r0, r0, #4	; 0x4
  102240:	e083219c 	umull	r2, r3, ip, r1
  102244:	e1a031a3 	mov	r3, r3, lsr #3
  102248:	e0832103 	add	r2, r3, r3, lsl #2
  10224c:	e0412082 	sub	r2, r1, r2, lsl #1
  102250:	e2822030 	add	r2, r2, #48	; 0x30
  102254:	e3530009 	cmp	r3, #9	; 0x9
  102258:	e1a01003 	mov	r1, r3
  10225c:	e5602001 	strb	r2, [r0, #-1]!
  102260:	8afffff6 	bhi	102240 <prog+0x21fc>
  102264:	e2400001 	sub	r0, r0, #1	; 0x1
  102268:	e58d001c 	str	r0, [sp, #28]
  10226c:	e59d401c 	ldr	r4, [sp, #28]
  102270:	e2813030 	add	r3, r1, #48	; 0x30
  102274:	e5c43000 	strb	r3, [r4]
  102278:	eafffc96 	b	1014d8 <prog+0x1494>
  10227c:	e59d1034 	ldr	r1, [sp, #52]
  102280:	e2417001 	sub	r7, r1, #1	; 0x1
  102284:	e3570000 	cmp	r7, #0	; 0x0
  102288:	daffffcf 	ble	1021cc <prog+0x2188>
  10228c:	e3570010 	cmp	r7, #16	; 0x10
  102290:	da000024 	ble	102328 <prog+0x22e4>
  102294:	e59f9184 	ldr	r9, [pc, #388]	; 102420 <prog+0x23dc>
  102298:	ea000002 	b	1022a8 <prog+0x2264>
  10229c:	e2477010 	sub	r7, r7, #16	; 0x10
  1022a0:	e3570010 	cmp	r7, #16	; 0x10
  1022a4:	da000020 	ble	10232c <prog+0x22e8>
  1022a8:	e2855001 	add	r5, r5, #1	; 0x1
  1022ac:	e28d1e67 	add	r1, sp, #1648	; 0x670
  1022b0:	e2866010 	add	r6, r6, #16	; 0x10
  1022b4:	e3a03010 	mov	r3, #16	; 0x10
  1022b8:	e3550007 	cmp	r5, #7	; 0x7
  1022bc:	e5843004 	str	r3, [r4, #4]
  1022c0:	e5849000 	str	r9, [r4]
  1022c4:	e1a0000a 	mov	r0, sl
  1022c8:	e2811008 	add	r1, r1, #8	; 0x8
  1022cc:	e2844008 	add	r4, r4, #8	; 0x8
  1022d0:	e58d6680 	str	r6, [sp, #1664]
  1022d4:	e58d567c 	str	r5, [sp, #1660]
  1022d8:	daffffef 	ble	10229c <prog+0x2258>
  1022dc:	ebfffb2a 	bl	100f8c <__sprint>
  1022e0:	e3500000 	cmp	r0, #0	; 0x0
  1022e4:	1afffc26 	bne	101384 <prog+0x1340>
  1022e8:	e59d6680 	ldr	r6, [sp, #1664]
  1022ec:	e59d567c 	ldr	r5, [sp, #1660]
  1022f0:	e28d4e61 	add	r4, sp, #1552	; 0x610
  1022f4:	eaffffe8 	b	10229c <prog+0x2258>
  1022f8:	e59d4054 	ldr	r4, [sp, #84]
  1022fc:	e2143040 	ands	r3, r4, #64	; 0x40
  102300:	15993000 	ldrne	r3, [r9]
  102304:	05991000 	ldreq	r1, [r9]
  102308:	11a03803 	movne	r3, r3, lsl #16
  10230c:	12899004 	addne	r9, r9, #4	; 0x4
  102310:	02899004 	addeq	r9, r9, #4	; 0x4
  102314:	11a01823 	movne	r1, r3, lsr #16
  102318:	01a02003 	moveq	r2, r3
  10231c:	158d9050 	strne	r9, [sp, #80]
  102320:	058d9050 	streq	r9, [sp, #80]
  102324:	eafffc52 	b	101474 <prog+0x1430>
  102328:	e59f90f0 	ldr	r9, [pc, #240]	; 102420 <prog+0x23dc>
  10232c:	e2855001 	add	r5, r5, #1	; 0x1
  102330:	e0866007 	add	r6, r6, r7
  102334:	e3550007 	cmp	r5, #7	; 0x7
  102338:	e5849000 	str	r9, [r4]
  10233c:	e5847004 	str	r7, [r4, #4]
  102340:	e58d6680 	str	r6, [sp, #1664]
  102344:	e58d567c 	str	r5, [sp, #1660]
  102348:	daffff9e 	ble	1021c8 <prog+0x2184>
  10234c:	e28d1e67 	add	r1, sp, #1648	; 0x670
  102350:	e1a0000a 	mov	r0, sl
  102354:	e2811008 	add	r1, r1, #8	; 0x8
  102358:	ebfffb0b 	bl	100f8c <__sprint>
  10235c:	e3500000 	cmp	r0, #0	; 0x0
  102360:	1afffc07 	bne	101384 <prog+0x1340>
  102364:	e59d6680 	ldr	r6, [sp, #1664]
  102368:	e59d567c 	ldr	r5, [sp, #1660]
  10236c:	e28d4e61 	add	r4, sp, #1552	; 0x610
  102370:	eaffff95 	b	1021cc <prog+0x2188>
  102374:	e28d1e67 	add	r1, sp, #1648	; 0x670
  102378:	e1a0000a 	mov	r0, sl
  10237c:	e2811008 	add	r1, r1, #8	; 0x8
  102380:	ebfffb01 	bl	100f8c <__sprint>
  102384:	e3500000 	cmp	r0, #0	; 0x0
  102388:	1afffbfd 	bne	101384 <prog+0x1340>
  10238c:	e59d6680 	ldr	r6, [sp, #1664]
  102390:	e59d567c 	ldr	r5, [sp, #1660]
  102394:	e28d4e61 	add	r4, sp, #1552	; 0x610
  102398:	eaffff77 	b	10217c <prog+0x2138>
  10239c:	e59d5054 	ldr	r5, [sp, #84]
  1023a0:	e3150001 	tst	r5, #1	; 0x1
  1023a4:	0afffd91 	beq	1019f0 <prog+0x19ac>
  1023a8:	eaffff03 	b	101fbc <prog+0x1f78>
  1023ac:	e899000c 	ldmia	r9, {r2, r3}
  1023b0:	e2899008 	add	r9, r9, #8	; 0x8
  1023b4:	e58d2048 	str	r2, [sp, #72]
  1023b8:	e58d304c 	str	r3, [sp, #76]
  1023bc:	e58d9050 	str	r9, [sp, #80]
  1023c0:	eafffd02 	b	1017d0 <prog+0x178c>
  1023c4:	e2833020 	add	r3, r3, #32	; 0x20
  1023c8:	e5cd36af 	strb	r3, [sp, #1711]
  1023cc:	e59d2018 	ldr	r2, [sp, #24]
  1023d0:	e5d23000 	ldrb	r3, [r2]
  1023d4:	eafffb7a 	b	1011c4 <_vfprintf_r+0x1f8>
  1023d8:	e5993000 	ldr	r3, [r9]
  1023dc:	e1a03803 	mov	r3, r3, lsl #16
  1023e0:	e2899004 	add	r9, r9, #4	; 0x4
  1023e4:	e1a01823 	mov	r1, r3, lsr #16
  1023e8:	e3a02001 	mov	r2, #1	; 0x1
  1023ec:	e58d9050 	str	r9, [sp, #80]
  1023f0:	eafffc1f 	b	101474 <prog+0x1430>
  1023f4:	0010cf2c 	andeqs	ip, r0, ip, lsr #30
  1023f8:	0010cf18 	andeqs	ip, r0, r8, lsl pc
  1023fc:	0010cf0c 	andeqs	ip, r0, ip, lsl #30
  102400:	0010cef8 	ldreqsh	ip, [r0], -r8
  102404:	cccccccd 	stcgtl	12, cr12, [ip], {205}
  102408:	0010cf50 	andeqs	ip, r0, r0, asr pc
  10240c:	0010cf48 	andeqs	ip, r0, r8, asr #30
  102410:	0010cf10 	andeqs	ip, r0, r0, lsl pc
  102414:	0010cf4c 	andeqs	ip, r0, ip, asr #30
  102418:	0010cf54 	andeqs	ip, r0, r4, asr pc
  10241c:	0010c820 	andeqs	ip, r0, r0, lsr #16
  102420:	0010c810 	andeqs	ip, r0, r0, lsl r8
  102424:	0010cf14 	andeqs	ip, r0, r4, lsl pc
  102428:	66666667 	strvsbt	r6, [r6], -r7, ror #12
  10242c:	e5993000 	ldr	r3, [r9]
  102430:	e1a03803 	mov	r3, r3, lsl #16
  102434:	e2899004 	add	r9, r9, #4	; 0x4
  102438:	e1a01843 	mov	r1, r3, asr #16
  10243c:	e58d9050 	str	r9, [sp, #80]
  102440:	eafffbe7 	b	1013e4 <prog+0x13a0>
  102444:	e5993000 	ldr	r3, [r9]
  102448:	e1a03803 	mov	r3, r3, lsl #16
  10244c:	e2899004 	add	r9, r9, #4	; 0x4
  102450:	e1a01823 	mov	r1, r3, lsr #16
  102454:	e58d9050 	str	r9, [sp, #80]
  102458:	eafffca5 	b	1016f4 <prog+0x16b0>
  10245c:	e5993000 	ldr	r3, [r9]
  102460:	e2899004 	add	r9, r9, #4	; 0x4
  102464:	e58d9050 	str	r9, [sp, #80]
  102468:	e59d4020 	ldr	r4, [sp, #32]
  10246c:	e59d9050 	ldr	r9, [sp, #80]
  102470:	e5834000 	str	r4, [r3]
  102474:	eafffb29 	b	101120 <_vfprintf_r+0x154>
  102478:	e2855001 	add	r5, r5, #1	; 0x1
  10247c:	e59d101c 	ldr	r1, [sp, #28]
  102480:	e086600c 	add	r6, r6, ip
  102484:	e3550007 	cmp	r5, #7	; 0x7
  102488:	e8881002 	stmia	r8, {r1, ip}
  10248c:	e58d6680 	str	r6, [sp, #1664]
  102490:	e58d567c 	str	r5, [sp, #1660]
  102494:	d288c008 	addle	ip, r8, #8	; 0x8
  102498:	ca000197 	bgt	102afc <prog+0x2ab8>
  10249c:	e59d2034 	ldr	r2, [sp, #52]
  1024a0:	e0624000 	rsb	r4, r2, r0
  1024a4:	e3540000 	cmp	r4, #0	; 0x0
  1024a8:	da00004b 	ble	1025dc <prog+0x2598>
  1024ac:	e3540010 	cmp	r4, #16	; 0x10
  1024b0:	da000036 	ble	102590 <prog+0x254c>
  1024b4:	e59d567c 	ldr	r5, [sp, #1660]
  1024b8:	e51f90a0 	ldr	r9, [pc, #-160]	; 102420 <prog+0x23dc>
  1024bc:	ea000002 	b	1024cc <prog+0x2488>
  1024c0:	e2444010 	sub	r4, r4, #16	; 0x10
  1024c4:	e3540010 	cmp	r4, #16	; 0x10
  1024c8:	da000032 	ble	102598 <prog+0x2554>
  1024cc:	e2855001 	add	r5, r5, #1	; 0x1
  1024d0:	e28d1e67 	add	r1, sp, #1648	; 0x670
  1024d4:	e2866010 	add	r6, r6, #16	; 0x10
  1024d8:	e3a03010 	mov	r3, #16	; 0x10
  1024dc:	e3550007 	cmp	r5, #7	; 0x7
  1024e0:	e58c3004 	str	r3, [ip, #4]
  1024e4:	e58c9000 	str	r9, [ip]
  1024e8:	e1a0000a 	mov	r0, sl
  1024ec:	e2811008 	add	r1, r1, #8	; 0x8
  1024f0:	e28cc008 	add	ip, ip, #8	; 0x8
  1024f4:	e58d6680 	str	r6, [sp, #1664]
  1024f8:	e58d567c 	str	r5, [sp, #1660]
  1024fc:	daffffef 	ble	1024c0 <prog+0x247c>
  102500:	ebfffaa1 	bl	100f8c <__sprint>
  102504:	e3500000 	cmp	r0, #0	; 0x0
  102508:	1afffb9d 	bne	101384 <prog+0x1340>
  10250c:	e59d6680 	ldr	r6, [sp, #1664]
  102510:	e59d567c 	ldr	r5, [sp, #1660]
  102514:	e28dce61 	add	ip, sp, #1552	; 0x610
  102518:	eaffffe8 	b	1024c0 <prog+0x247c>
  10251c:	e5993000 	ldr	r3, [r9]
  102520:	e28d5e45 	add	r5, sp, #1104	; 0x450
  102524:	e2899004 	add	r9, r9, #4	; 0x4
  102528:	e3a0b001 	mov	fp, #1	; 0x1
  10252c:	e2855008 	add	r5, r5, #8	; 0x8
  102530:	e5cd3458 	strb	r3, [sp, #1112]
  102534:	e58d9050 	str	r9, [sp, #80]
  102538:	eafffc8e 	b	101778 <prog+0x1734>
  10253c:	e3560000 	cmp	r6, #0	; 0x0
  102540:	03a06001 	moveq	r6, #1	; 0x1
  102544:	eafffc99 	b	1017b0 <prog+0x176c>
  102548:	e3560000 	cmp	r6, #0	; 0x0
  10254c:	ba000187 	blt	102b70 <prog+0x2b2c>
  102550:	e59d001c 	ldr	r0, [sp, #28]
  102554:	e1a01005 	mov	r1, r5
  102558:	e1a02006 	mov	r2, r6
  10255c:	eb000d43 	bl	105a70 <memchr>
  102560:	e3500000 	cmp	r0, #0	; 0x0
  102564:	0a0001f6 	beq	102d44 <prog+0x2d00>
  102568:	e59d201c 	ldr	r2, [sp, #28]
  10256c:	e062b000 	rsb	fp, r2, r0
  102570:	e156000b 	cmp	r6, fp
  102574:	ba00016c 	blt	102b2c <prog+0x2ae8>
  102578:	e35b0000 	cmp	fp, #0	; 0x0
  10257c:	a1a0300b 	movge	r3, fp
  102580:	b3a03000 	movlt	r3, #0	; 0x0
  102584:	e58d303c 	str	r3, [sp, #60]
  102588:	e58d5038 	str	r5, [sp, #56]
  10258c:	eafffbdb 	b	101500 <prog+0x14bc>
  102590:	e59d567c 	ldr	r5, [sp, #1660]
  102594:	e51f917c 	ldr	r9, [pc, #-380]	; 102420 <prog+0x23dc>
  102598:	e2855001 	add	r5, r5, #1	; 0x1
  10259c:	e0866004 	add	r6, r6, r4
  1025a0:	e3550007 	cmp	r5, #7	; 0x7
  1025a4:	e58c9000 	str	r9, [ip]
  1025a8:	e58c4004 	str	r4, [ip, #4]
  1025ac:	e58d6680 	str	r6, [sp, #1664]
  1025b0:	e58d567c 	str	r5, [sp, #1660]
  1025b4:	d28cc008 	addle	ip, ip, #8	; 0x8
  1025b8:	da000007 	ble	1025dc <prog+0x2598>
  1025bc:	e28d1e67 	add	r1, sp, #1648	; 0x670
  1025c0:	e1a0000a 	mov	r0, sl
  1025c4:	e2811008 	add	r1, r1, #8	; 0x8
  1025c8:	ebfffa6f 	bl	100f8c <__sprint>
  1025cc:	e3500000 	cmp	r0, #0	; 0x0
  1025d0:	1afffb6b 	bne	101384 <prog+0x1340>
  1025d4:	e59d6680 	ldr	r6, [sp, #1664]
  1025d8:	e28dce61 	add	ip, sp, #1552	; 0x610
  1025dc:	e59d3054 	ldr	r3, [sp, #84]
  1025e0:	e3130001 	tst	r3, #1	; 0x1
  1025e4:	0afffd01 	beq	1019f0 <prog+0x19ac>
  1025e8:	e59d567c 	ldr	r5, [sp, #1660]
  1025ec:	e51f31ec 	ldr	r3, [pc, #-492]	; 102408 <prog+0x23c4>
  1025f0:	e2855001 	add	r5, r5, #1	; 0x1
  1025f4:	e2866001 	add	r6, r6, #1	; 0x1
  1025f8:	e3a02001 	mov	r2, #1	; 0x1
  1025fc:	e3550007 	cmp	r5, #7	; 0x7
  102600:	e58c3000 	str	r3, [ip]
  102604:	e58c2004 	str	r2, [ip, #4]
  102608:	e58d6680 	str	r6, [sp, #1664]
  10260c:	e58d567c 	str	r5, [sp, #1660]
  102610:	cafffebd 	bgt	10210c <prog+0x20c8>
  102614:	e28cc008 	add	ip, ip, #8	; 0x8
  102618:	eafffcf4 	b	1019f0 <prog+0x19ac>
  10261c:	e28d0e5b 	add	r0, sp, #1456	; 0x5b0
  102620:	e2800004 	add	r0, r0, #4	; 0x4
  102624:	e59d5040 	ldr	r5, [sp, #64]
  102628:	e201300f 	and	r3, r1, #15	; 0xf
  10262c:	e7d52003 	ldrb	r2, [r5, r3]
  102630:	e1b01221 	movs	r1, r1, lsr #4
  102634:	e5602001 	strb	r2, [r0, #-1]!
  102638:	1afffff9 	bne	102624 <prog+0x25e0>
  10263c:	e58d001c 	str	r0, [sp, #28]
  102640:	eafffba4 	b	1014d8 <prog+0x1494>
  102644:	e59d567c 	ldr	r5, [sp, #1660]
  102648:	e51f9230 	ldr	r9, [pc, #-560]	; 102420 <prog+0x23dc>
  10264c:	e2855001 	add	r5, r5, #1	; 0x1
  102650:	e0866004 	add	r6, r6, r4
  102654:	e3550007 	cmp	r5, #7	; 0x7
  102658:	e58c9000 	str	r9, [ip]
  10265c:	e58c4004 	str	r4, [ip, #4]
  102660:	e58d6680 	str	r6, [sp, #1664]
  102664:	e58d567c 	str	r5, [sp, #1660]
  102668:	cafffea7 	bgt	10210c <prog+0x20c8>
  10266c:	e28cc008 	add	ip, ip, #8	; 0x8
  102670:	eafffcde 	b	1019f0 <prog+0x19ac>
  102674:	e59d3054 	ldr	r3, [sp, #84]
  102678:	e3130001 	tst	r3, #1	; 0x1
  10267c:	1afffeae 	bne	10213c <prog+0x20f8>
  102680:	e2855001 	add	r5, r5, #1	; 0x1
  102684:	e59d201c 	ldr	r2, [sp, #28]
  102688:	e2866001 	add	r6, r6, #1	; 0x1
  10268c:	e3550007 	cmp	r5, #7	; 0x7
  102690:	e3a03001 	mov	r3, #1	; 0x1
  102694:	e888000c 	stmia	r8, {r2, r3}
  102698:	e58d6680 	str	r6, [sp, #1664]
  10269c:	e58d567c 	str	r5, [sp, #1660]
  1026a0:	d2884008 	addle	r4, r8, #8	; 0x8
  1026a4:	dafffec8 	ble	1021cc <prog+0x2188>
  1026a8:	eaffff27 	b	10234c <prog+0x2308>
  1026ac:	e51f9294 	ldr	r9, [pc, #-660]	; 102420 <prog+0x23dc>
  1026b0:	eafffcb0 	b	101978 <prog+0x1934>
  1026b4:	e3a04003 	mov	r4, #3	; 0x3
  1026b8:	e51f52b4 	ldr	r5, [pc, #-692]	; 10240c <prog+0x23c8>
  1026bc:	e3a0c000 	mov	ip, #0	; 0x0
  1026c0:	e1a0b004 	mov	fp, r4
  1026c4:	e58d403c 	str	r4, [sp, #60]
  1026c8:	e58d501c 	str	r5, [sp, #28]
  1026cc:	e58dc038 	str	ip, [sp, #56]
  1026d0:	eafffb8a 	b	101500 <prog+0x14bc>
  1026d4:	e28d1e67 	add	r1, sp, #1648	; 0x670
  1026d8:	e1a0000a 	mov	r0, sl
  1026dc:	e2811008 	add	r1, r1, #8	; 0x8
  1026e0:	ebfffa29 	bl	100f8c <__sprint>
  1026e4:	e3500000 	cmp	r0, #0	; 0x0
  1026e8:	1afffb25 	bne	101384 <prog+0x1340>
  1026ec:	e59d6680 	ldr	r6, [sp, #1664]
  1026f0:	e28dce61 	add	ip, sp, #1552	; 0x610
  1026f4:	eafffe2c 	b	101fac <prog+0x1f68>
  1026f8:	e28d0048 	add	r0, sp, #72	; 0x48
  1026fc:	e8900003 	ldmia	r0, {r0, r1}
  102700:	eb0011e3 	bl	106e94 <isnan>
  102704:	e3500000 	cmp	r0, #0	; 0x0
  102708:	0a000059 	beq	102874 <prog+0x2830>
  10270c:	e2473045 	sub	r3, r7, #69	; 0x45
  102710:	e3530002 	cmp	r3, #2	; 0x2
  102714:	8a00011e 	bhi	102b94 <prog+0x2b50>
  102718:	e3a0c003 	mov	ip, #3	; 0x3
  10271c:	e51f1314 	ldr	r1, [pc, #-788]	; 102410 <prog+0x23cc>
  102720:	e1a0b00c 	mov	fp, ip
  102724:	e58dc03c 	str	ip, [sp, #60]
  102728:	e58d101c 	str	r1, [sp, #28]
  10272c:	e58d4038 	str	r4, [sp, #56]
  102730:	eafffb72 	b	101500 <prog+0x14bc>
  102734:	e28d1e67 	add	r1, sp, #1648	; 0x670
  102738:	e1a0000a 	mov	r0, sl
  10273c:	e2811008 	add	r1, r1, #8	; 0x8
  102740:	ebfffa11 	bl	100f8c <__sprint>
  102744:	e3500000 	cmp	r0, #0	; 0x0
  102748:	1afffb0d 	bne	101384 <prog+0x1340>
  10274c:	e59d6680 	ldr	r6, [sp, #1664]
  102750:	e28dce61 	add	ip, sp, #1552	; 0x610
  102754:	eafffe24 	b	101fec <prog+0x1fa8>
  102758:	e59d6680 	ldr	r6, [sp, #1664]
  10275c:	e59d567c 	ldr	r5, [sp, #1660]
  102760:	e51f934c 	ldr	r9, [pc, #-844]	; 10241c <prog+0x23d8>
  102764:	eafffb93 	b	1015b8 <prog+0x1574>
  102768:	e2855001 	add	r5, r5, #1	; 0x1
  10276c:	e51f3360 	ldr	r3, [pc, #-864]	; 102414 <prog+0x23d0>
  102770:	e3550007 	cmp	r5, #7	; 0x7
  102774:	e2866001 	add	r6, r6, #1	; 0x1
  102778:	e3a02001 	mov	r2, #1	; 0x1
  10277c:	e5883000 	str	r3, [r8]
  102780:	e5882004 	str	r2, [r8, #4]
  102784:	e58d6680 	str	r6, [sp, #1664]
  102788:	e58d567c 	str	r5, [sp, #1660]
  10278c:	d288c008 	addle	ip, r8, #8	; 0x8
  102790:	ca0000ec 	bgt	102b48 <prog+0x2b04>
  102794:	e3500000 	cmp	r0, #0	; 0x0
  102798:	1a000002 	bne	1027a8 <prog+0x2764>
  10279c:	e59d2034 	ldr	r2, [sp, #52]
  1027a0:	e3520000 	cmp	r2, #0	; 0x0
  1027a4:	0afffc91 	beq	1019f0 <prog+0x19ac>
  1027a8:	e59d567c 	ldr	r5, [sp, #1660]
  1027ac:	e3a03001 	mov	r3, #1	; 0x1
  1027b0:	e2855001 	add	r5, r5, #1	; 0x1
  1027b4:	e58c3004 	str	r3, [ip, #4]
  1027b8:	e59d3028 	ldr	r3, [sp, #40]
  1027bc:	e2866001 	add	r6, r6, #1	; 0x1
  1027c0:	e3550007 	cmp	r5, #7	; 0x7
  1027c4:	e58c3000 	str	r3, [ip]
  1027c8:	e58d6680 	str	r6, [sp, #1664]
  1027cc:	e58d567c 	str	r5, [sp, #1660]
  1027d0:	d28c2008 	addle	r2, ip, #8	; 0x8
  1027d4:	ca00014f 	bgt	102d18 <prog+0x2cd4>
  1027d8:	e2604000 	rsb	r4, r0, #0	; 0x0
  1027dc:	e3540000 	cmp	r4, #0	; 0x0
  1027e0:	da0000a3 	ble	102a74 <prog+0x2a30>
  1027e4:	e3540010 	cmp	r4, #16	; 0x10
  1027e8:	da00008e 	ble	102a28 <prog+0x29e4>
  1027ec:	e51f93d4 	ldr	r9, [pc, #-980]	; 102420 <prog+0x23dc>
  1027f0:	ea000002 	b	102800 <prog+0x27bc>
  1027f4:	e2444010 	sub	r4, r4, #16	; 0x10
  1027f8:	e3540010 	cmp	r4, #16	; 0x10
  1027fc:	da00008a 	ble	102a2c <prog+0x29e8>
  102800:	e2855001 	add	r5, r5, #1	; 0x1
  102804:	e28d1e67 	add	r1, sp, #1648	; 0x670
  102808:	e2866010 	add	r6, r6, #16	; 0x10
  10280c:	e3a03010 	mov	r3, #16	; 0x10
  102810:	e3550007 	cmp	r5, #7	; 0x7
  102814:	e5823004 	str	r3, [r2, #4]
  102818:	e5829000 	str	r9, [r2]
  10281c:	e1a0000a 	mov	r0, sl
  102820:	e2811008 	add	r1, r1, #8	; 0x8
  102824:	e2822008 	add	r2, r2, #8	; 0x8
  102828:	e58d6680 	str	r6, [sp, #1664]
  10282c:	e58d567c 	str	r5, [sp, #1660]
  102830:	daffffef 	ble	1027f4 <prog+0x27b0>
  102834:	ebfff9d4 	bl	100f8c <__sprint>
  102838:	e3500000 	cmp	r0, #0	; 0x0
  10283c:	1afffad0 	bne	101384 <prog+0x1340>
  102840:	e59d6680 	ldr	r6, [sp, #1664]
  102844:	e59d567c 	ldr	r5, [sp, #1660]
  102848:	e28d2e61 	add	r2, sp, #1552	; 0x610
  10284c:	eaffffe8 	b	1027f4 <prog+0x27b0>
  102850:	e3a03006 	mov	r3, #6	; 0x6
  102854:	e51f4444 	ldr	r4, [pc, #-1092]	; 102418 <prog+0x23d4>
  102858:	e1a0b003 	mov	fp, r3
  10285c:	e58d303c 	str	r3, [sp, #60]
  102860:	e58d401c 	str	r4, [sp, #28]
  102864:	eafffc03 	b	101878 <prog+0x1834>
  102868:	e59d567c 	ldr	r5, [sp, #1660]
  10286c:	e51f9458 	ldr	r9, [pc, #-1112]	; 10241c <prog+0x23d8>
  102870:	eafffc84 	b	101a88 <prog+0x1a44>
  102874:	e59d4054 	ldr	r4, [sp, #84]
  102878:	e3570066 	cmp	r7, #102	; 0x66
  10287c:	e3844c01 	orr	r4, r4, #256	; 0x100
  102880:	e58d4054 	str	r4, [sp, #84]
  102884:	01a0b006 	moveq	fp, r6
  102888:	03a02003 	moveq	r2, #3	; 0x3
  10288c:	0a000005 	beq	1028a8 <prog+0x2864>
  102890:	e3570045 	cmp	r7, #69	; 0x45
  102894:	13570065 	cmpne	r7, #101	; 0x65
  102898:	11a0b006 	movne	fp, r6
  10289c:	13a02002 	movne	r2, #2	; 0x2
  1028a0:	0286b001 	addeq	fp, r6, #1	; 0x1
  1028a4:	03a02002 	moveq	r2, #2	; 0x2
  1028a8:	e28d3048 	add	r3, sp, #72	; 0x48
  1028ac:	e8930018 	ldmia	r3, {r3, r4}
  1028b0:	e3530000 	cmp	r3, #0	; 0x0
  1028b4:	a3a0c000 	movge	ip, #0	; 0x0
  1028b8:	b3a0c02d 	movlt	ip, #45	; 0x2d
  1028bc:	b59d1048 	ldrlt	r1, [sp, #72]
  1028c0:	b59d304c 	ldrlt	r3, [sp, #76]
  1028c4:	a58dc02c 	strge	ip, [sp, #44]
  1028c8:	b58dc02c 	strlt	ip, [sp, #44]
  1028cc:	e28dce6a 	add	ip, sp, #1696	; 0x6a0
  1028d0:	e28cc008 	add	ip, ip, #8	; 0x8
  1028d4:	a1a05004 	movge	r5, r4
  1028d8:	b1a05003 	movlt	r5, r3
  1028dc:	a1a04003 	movge	r4, r3
  1028e0:	b2814102 	addlt	r4, r1, #-2147483648	; 0x80000000
  1028e4:	e58dc004 	str	ip, [sp, #4]
  1028e8:	e28dce69 	add	ip, sp, #1680	; 0x690
  1028ec:	e1a03002 	mov	r3, r2
  1028f0:	e28dee6a 	add	lr, sp, #1696	; 0x6a0
  1028f4:	e28cc00c 	add	ip, ip, #12	; 0xc
  1028f8:	e59d0010 	ldr	r0, [sp, #16]
  1028fc:	e1a01004 	mov	r1, r4
  102900:	e1a02005 	mov	r2, r5
  102904:	e58de008 	str	lr, [sp, #8]
  102908:	e58dc00c 	str	ip, [sp, #12]
  10290c:	e58db000 	str	fp, [sp]
  102910:	eb0003c5 	bl	10382c <_dtoa_r>
  102914:	e3570067 	cmp	r7, #103	; 0x67
  102918:	13570047 	cmpne	r7, #71	; 0x47
  10291c:	e58d001c 	str	r0, [sp, #28]
  102920:	1a000003 	bne	102934 <prog+0x28f0>
  102924:	e59d1054 	ldr	r1, [sp, #84]
  102928:	e3110001 	tst	r1, #1	; 0x1
  10292c:	059d269c 	ldreq	r2, [sp, #1692]
  102930:	0a000019 	beq	10299c <prog+0x2958>
  102934:	e59d201c 	ldr	r2, [sp, #28]
  102938:	e3570066 	cmp	r7, #102	; 0x66
  10293c:	e082900b 	add	r9, r2, fp
  102940:	0a00012d 	beq	102dfc <prog+0x2db8>
  102944:	e3a02000 	mov	r2, #0	; 0x0
  102948:	e1a00004 	mov	r0, r4
  10294c:	e1a01005 	mov	r1, r5
  102950:	e3a03000 	mov	r3, #0	; 0x0
  102954:	eb001690 	bl	10839c <__eqdf2>
  102958:	e3500000 	cmp	r0, #0	; 0x0
  10295c:	01a02009 	moveq	r2, r9
  102960:	058d269c 	streq	r2, [sp, #1692]
  102964:	0a00000c 	beq	10299c <prog+0x2958>
  102968:	e59d269c 	ldr	r2, [sp, #1692]
  10296c:	e1590002 	cmp	r9, r2
  102970:	9a000009 	bls	10299c <prog+0x2958>
  102974:	e0623009 	rsb	r3, r2, r9
  102978:	e0833002 	add	r3, r3, r2
  10297c:	e2821001 	add	r1, r2, #1	; 0x1
  102980:	e3a00030 	mov	r0, #48	; 0x30
  102984:	e1510003 	cmp	r1, r3
  102988:	e5410001 	strb	r0, [r1, #-1]
  10298c:	e1a02001 	mov	r2, r1
  102990:	e58d169c 	str	r1, [sp, #1692]
  102994:	e2811001 	add	r1, r1, #1	; 0x1
  102998:	1afffff9 	bne	102984 <prog+0x2940>
  10299c:	e59d401c 	ldr	r4, [sp, #28]
  1029a0:	e3570067 	cmp	r7, #103	; 0x67
  1029a4:	13a03000 	movne	r3, #0	; 0x0
  1029a8:	03a03001 	moveq	r3, #1	; 0x1
  1029ac:	e3570067 	cmp	r7, #103	; 0x67
  1029b0:	13570047 	cmpne	r7, #71	; 0x47
  1029b4:	e0645002 	rsb	r5, r4, r2
  1029b8:	1a000082 	bne	102bc8 <prog+0x2b84>
  1029bc:	e59d06a8 	ldr	r0, [sp, #1704]
  1029c0:	e3700004 	cmn	r0, #4	; 0x4
  1029c4:	da0000bd 	ble	102cc0 <prog+0x2c7c>
  1029c8:	e1560000 	cmp	r6, r0
  1029cc:	a3a07067 	movge	r7, #103	; 0x67
  1029d0:	ba0000ba 	blt	102cc0 <prog+0x2c7c>
  1029d4:	e1550000 	cmp	r5, r0
  1029d8:	e1a0b000 	mov	fp, r0
  1029dc:	ca0000fd 	bgt	102dd8 <prog+0x2d94>
  1029e0:	e59d1054 	ldr	r1, [sp, #84]
  1029e4:	e3110001 	tst	r1, #1	; 0x1
  1029e8:	1280b001 	addne	fp, r0, #1	; 0x1
  1029ec:	1a0000f4 	bne	102dc4 <prog+0x2d80>
  1029f0:	e35b0000 	cmp	fp, #0	; 0x0
  1029f4:	a1a0200b 	movge	r2, fp
  1029f8:	b3a02000 	movlt	r2, #0	; 0x0
  1029fc:	e58d203c 	str	r2, [sp, #60]
  102a00:	e59dc02c 	ldr	ip, [sp, #44]
  102a04:	e35c0000 	cmp	ip, #0	; 0x0
  102a08:	1a000068 	bne	102bb0 <prog+0x2b6c>
  102a0c:	e35b0000 	cmp	fp, #0	; 0x0
  102a10:	a1a0100b 	movge	r1, fp
  102a14:	b3a01000 	movlt	r1, #0	; 0x0
  102a18:	e58d103c 	str	r1, [sp, #60]
  102a1c:	e58d5034 	str	r5, [sp, #52]
  102a20:	e58dc038 	str	ip, [sp, #56]
  102a24:	eafffab5 	b	101500 <prog+0x14bc>
  102a28:	e51f9610 	ldr	r9, [pc, #-1552]	; 102420 <prog+0x23dc>
  102a2c:	e2855001 	add	r5, r5, #1	; 0x1
  102a30:	e0866004 	add	r6, r6, r4
  102a34:	e3550007 	cmp	r5, #7	; 0x7
  102a38:	e5829000 	str	r9, [r2]
  102a3c:	e5824004 	str	r4, [r2, #4]
  102a40:	e58d6680 	str	r6, [sp, #1664]
  102a44:	e58d567c 	str	r5, [sp, #1660]
  102a48:	d2822008 	addle	r2, r2, #8	; 0x8
  102a4c:	da000008 	ble	102a74 <prog+0x2a30>
  102a50:	e28d1e67 	add	r1, sp, #1648	; 0x670
  102a54:	e1a0000a 	mov	r0, sl
  102a58:	e2811008 	add	r1, r1, #8	; 0x8
  102a5c:	ebfff94a 	bl	100f8c <__sprint>
  102a60:	e3500000 	cmp	r0, #0	; 0x0
  102a64:	1afffa46 	bne	101384 <prog+0x1340>
  102a68:	e59d6680 	ldr	r6, [sp, #1664]
  102a6c:	e59d567c 	ldr	r5, [sp, #1660]
  102a70:	e28d2e61 	add	r2, sp, #1552	; 0x610
  102a74:	e59d4034 	ldr	r4, [sp, #52]
  102a78:	e2855001 	add	r5, r5, #1	; 0x1
  102a7c:	e59d801c 	ldr	r8, [sp, #28]
  102a80:	e3550007 	cmp	r5, #7	; 0x7
  102a84:	e0866004 	add	r6, r6, r4
  102a88:	e5828000 	str	r8, [r2]
  102a8c:	e5824004 	str	r4, [r2, #4]
  102a90:	e58d6680 	str	r6, [sp, #1664]
  102a94:	e58d567c 	str	r5, [sp, #1660]
  102a98:	d282c008 	addle	ip, r2, #8	; 0x8
  102a9c:	dafffbd3 	ble	1019f0 <prog+0x19ac>
  102aa0:	eafffd99 	b	10210c <prog+0x20c8>
  102aa4:	e28d1e67 	add	r1, sp, #1648	; 0x670
  102aa8:	e1a0000a 	mov	r0, sl
  102aac:	e2811008 	add	r1, r1, #8	; 0x8
  102ab0:	ebfff935 	bl	100f8c <__sprint>
  102ab4:	e3500000 	cmp	r0, #0	; 0x0
  102ab8:	1afffa31 	bne	101384 <prog+0x1340>
  102abc:	e59d6680 	ldr	r6, [sp, #1664]
  102ac0:	e59d567c 	ldr	r5, [sp, #1660]
  102ac4:	e59d06a8 	ldr	r0, [sp, #1704]
  102ac8:	e28dce61 	add	ip, sp, #1552	; 0x610
  102acc:	eafffd82 	b	1020dc <prog+0x2098>
  102ad0:	e28d1e67 	add	r1, sp, #1648	; 0x670
  102ad4:	e1a0000a 	mov	r0, sl
  102ad8:	e2811008 	add	r1, r1, #8	; 0x8
  102adc:	ebfff92a 	bl	100f8c <__sprint>
  102ae0:	e3500000 	cmp	r0, #0	; 0x0
  102ae4:	1afffa26 	bne	101384 <prog+0x1340>
  102ae8:	e59d6680 	ldr	r6, [sp, #1664]
  102aec:	e59d567c 	ldr	r5, [sp, #1660]
  102af0:	e59d06a8 	ldr	r0, [sp, #1704]
  102af4:	e28d1e61 	add	r1, sp, #1552	; 0x610
  102af8:	eafffd6b 	b	1020ac <prog+0x2068>
  102afc:	e28d1e67 	add	r1, sp, #1648	; 0x670
  102b00:	e1a0000a 	mov	r0, sl
  102b04:	e2811008 	add	r1, r1, #8	; 0x8
  102b08:	ebfff91f 	bl	100f8c <__sprint>
  102b0c:	e3500000 	cmp	r0, #0	; 0x0
  102b10:	1afffa1b 	bne	101384 <prog+0x1340>
  102b14:	e59d6680 	ldr	r6, [sp, #1664]
  102b18:	e59d06a8 	ldr	r0, [sp, #1704]
  102b1c:	e28dce61 	add	ip, sp, #1552	; 0x610
  102b20:	eafffe5d 	b	10249c <prog+0x2458>
  102b24:	e51f970c 	ldr	r9, [pc, #-1804]	; 102420 <prog+0x23dc>
  102b28:	eafffce9 	b	101ed4 <prog+0x1e90>
  102b2c:	e3560000 	cmp	r6, #0	; 0x0
  102b30:	a1a04006 	movge	r4, r6
  102b34:	b3a04000 	movlt	r4, #0	; 0x0
  102b38:	e1a0b006 	mov	fp, r6
  102b3c:	e58d403c 	str	r4, [sp, #60]
  102b40:	e58d5038 	str	r5, [sp, #56]
  102b44:	eafffa6d 	b	101500 <prog+0x14bc>
  102b48:	e28d1e67 	add	r1, sp, #1648	; 0x670
  102b4c:	e1a0000a 	mov	r0, sl
  102b50:	e2811008 	add	r1, r1, #8	; 0x8
  102b54:	ebfff90c 	bl	100f8c <__sprint>
  102b58:	e3500000 	cmp	r0, #0	; 0x0
  102b5c:	1afffa08 	bne	101384 <prog+0x1340>
  102b60:	e59d6680 	ldr	r6, [sp, #1664]
  102b64:	e59d06a8 	ldr	r0, [sp, #1704]
  102b68:	e28dce61 	add	ip, sp, #1552	; 0x610
  102b6c:	eaffff08 	b	102794 <prog+0x2750>
  102b70:	e59d001c 	ldr	r0, [sp, #28]
  102b74:	ebfff89b 	bl	100de8 <strlen>
  102b78:	e3500000 	cmp	r0, #0	; 0x0
  102b7c:	a1a0c000 	movge	ip, r0
  102b80:	b3a0c000 	movlt	ip, #0	; 0x0
  102b84:	e1a0b000 	mov	fp, r0
  102b88:	e58dc03c 	str	ip, [sp, #60]
  102b8c:	e58d5038 	str	r5, [sp, #56]
  102b90:	eafffa5a 	b	101500 <prog+0x14bc>
  102b94:	e3a02003 	mov	r2, #3	; 0x3
  102b98:	e51f377c 	ldr	r3, [pc, #-1916]	; 102424 <prog+0x23e0>
  102b9c:	e1a0b002 	mov	fp, r2
  102ba0:	e58d203c 	str	r2, [sp, #60]
  102ba4:	e58d301c 	str	r3, [sp, #28]
  102ba8:	e58d4038 	str	r4, [sp, #56]
  102bac:	eafffa53 	b	101500 <prog+0x14bc>
  102bb0:	e3a02000 	mov	r2, #0	; 0x0
  102bb4:	e3a0302d 	mov	r3, #45	; 0x2d
  102bb8:	e58d5034 	str	r5, [sp, #52]
  102bbc:	e58d2038 	str	r2, [sp, #56]
  102bc0:	e5cd36af 	strb	r3, [sp, #1711]
  102bc4:	eafffa50 	b	10150c <prog+0x14c8>
  102bc8:	e3570065 	cmp	r7, #101	; 0x65
  102bcc:	ca000069 	bgt	102d78 <prog+0x2d34>
  102bd0:	e59d06a8 	ldr	r0, [sp, #1704]
  102bd4:	e20730ff 	and	r3, r7, #255	; 0xff
  102bd8:	e2400001 	sub	r0, r0, #1	; 0x1
  102bdc:	e3500000 	cmp	r0, #0	; 0x0
  102be0:	e5cd3695 	strb	r3, [sp, #1685]
  102be4:	e1a0c000 	mov	ip, r0
  102be8:	b3a0302d 	movlt	r3, #45	; 0x2d
  102bec:	a3a0302b 	movge	r3, #43	; 0x2b
  102bf0:	b260c000 	rsblt	ip, r0, #0	; 0x0
  102bf4:	b5cd3696 	strltb	r3, [sp, #1686]
  102bf8:	a5cd3696 	strgeb	r3, [sp, #1686]
  102bfc:	e35c0009 	cmp	ip, #9	; 0x9
  102c00:	d28c2030 	addle	r2, ip, #48	; 0x30
  102c04:	d5cd2698 	strleb	r2, [sp, #1688]
  102c08:	d3a03030 	movle	r3, #48	; 0x30
  102c0c:	d28d2e69 	addle	r2, sp, #1680	; 0x690
  102c10:	e58d06a8 	str	r0, [sp, #1704]
  102c14:	d5cd3697 	strleb	r3, [sp, #1687]
  102c18:	d2822009 	addle	r2, r2, #9	; 0x9
  102c1c:	da00001a 	ble	102c8c <prog+0x2c48>
  102c20:	e28d4e67 	add	r4, sp, #1648	; 0x670
  102c24:	e2844008 	add	r4, r4, #8	; 0x8
  102c28:	e51f0808 	ldr	r0, [pc, #-2056]	; 102428 <prog+0x23e4>
  102c2c:	e1a0e004 	mov	lr, r4
  102c30:	e0c31c90 	smull	r1, r3, r0, ip
  102c34:	e1a02fcc 	mov	r2, ip, asr #31
  102c38:	e0622143 	rsb	r2, r2, r3, asr #2
  102c3c:	e0821102 	add	r1, r2, r2, lsl #2
  102c40:	e04c1081 	sub	r1, ip, r1, lsl #1
  102c44:	e2811030 	add	r1, r1, #48	; 0x30
  102c48:	e3520009 	cmp	r2, #9	; 0x9
  102c4c:	e1a0c002 	mov	ip, r2
  102c50:	e56e1001 	strb	r1, [lr, #-1]!
  102c54:	cafffff5 	bgt	102c30 <prog+0x2bec>
  102c58:	e24e0001 	sub	r0, lr, #1	; 0x1
  102c5c:	e1500004 	cmp	r0, r4
  102c60:	e2823030 	add	r3, r2, #48	; 0x30
  102c64:	228d2e69 	addcs	r2, sp, #1680	; 0x690
  102c68:	e54e3001 	strb	r3, [lr, #-1]
  102c6c:	22822007 	addcs	r2, r2, #7	; 0x7
  102c70:	2a000005 	bcs	102c8c <prog+0x2c48>
  102c74:	e28d2e69 	add	r2, sp, #1680	; 0x690
  102c78:	e2822007 	add	r2, r2, #7	; 0x7
  102c7c:	e4d03001 	ldrb	r3, [r0], #1
  102c80:	e1500004 	cmp	r0, r4
  102c84:	e4c23001 	strb	r3, [r2], #1
  102c88:	3afffffb 	bcc	102c7c <prog+0x2c38>
  102c8c:	e28d3e69 	add	r3, sp, #1680	; 0x690
  102c90:	e2833005 	add	r3, r3, #5	; 0x5
  102c94:	e0632002 	rsb	r2, r3, r2
  102c98:	e3550001 	cmp	r5, #1	; 0x1
  102c9c:	e58d2030 	str	r2, [sp, #48]
  102ca0:	e085b002 	add	fp, r5, r2
  102ca4:	da000043 	ble	102db8 <prog+0x2d74>
  102ca8:	e28bb001 	add	fp, fp, #1	; 0x1
  102cac:	e35b0000 	cmp	fp, #0	; 0x0
  102cb0:	a1a0400b 	movge	r4, fp
  102cb4:	b3a04000 	movlt	r4, #0	; 0x0
  102cb8:	e58d403c 	str	r4, [sp, #60]
  102cbc:	eaffff4f 	b	102a00 <prog+0x29bc>
  102cc0:	e3530000 	cmp	r3, #0	; 0x0
  102cc4:	13a03065 	movne	r3, #101	; 0x65
  102cc8:	11a07003 	movne	r7, r3
  102ccc:	03a03045 	moveq	r3, #69	; 0x45
  102cd0:	01a07003 	moveq	r7, r3
  102cd4:	eaffffbf 	b	102bd8 <prog+0x2b94>
  102cd8:	e3a01000 	mov	r1, #0	; 0x0
  102cdc:	e28d2e6a 	add	r2, sp, #1696	; 0x6a0
  102ce0:	e59d0010 	ldr	r0, [sp, #16]
  102ce4:	e2822004 	add	r2, r2, #4	; 0x4
  102ce8:	e1a03001 	mov	r3, r1
  102cec:	e58d9000 	str	r9, [sp]
  102cf0:	eb0000a7 	bl	102f94 <_wcsrtombs_r>
  102cf4:	e3700001 	cmn	r0, #1	; 0x1
  102cf8:	e1a0b000 	mov	fp, r0
  102cfc:	159d401c 	ldrne	r4, [sp, #28]
  102d00:	158d46a4 	strne	r4, [sp, #1700]
  102d04:	1afffbc4 	bne	101c1c <prog+0x1bd8>
  102d08:	e1da30bc 	ldrh	r3, [sl, #12]
  102d0c:	e3833040 	orr	r3, r3, #64	; 0x40
  102d10:	e1ca30bc 	strh	r3, [sl, #12]
  102d14:	eafff9a0 	b	10139c <prog+0x1358>
  102d18:	e28d1e67 	add	r1, sp, #1648	; 0x670
  102d1c:	e1a0000a 	mov	r0, sl
  102d20:	e2811008 	add	r1, r1, #8	; 0x8
  102d24:	ebfff898 	bl	100f8c <__sprint>
  102d28:	e3500000 	cmp	r0, #0	; 0x0
  102d2c:	1afff994 	bne	101384 <prog+0x1340>
  102d30:	e59d6680 	ldr	r6, [sp, #1664]
  102d34:	e59d567c 	ldr	r5, [sp, #1660]
  102d38:	e59d06a8 	ldr	r0, [sp, #1704]
  102d3c:	e28d2e61 	add	r2, sp, #1552	; 0x610
  102d40:	eafffea4 	b	1027d8 <prog+0x2794>
  102d44:	e3560000 	cmp	r6, #0	; 0x0
  102d48:	a1a01006 	movge	r1, r6
  102d4c:	b3a01000 	movlt	r1, #0	; 0x0
  102d50:	e1a0b006 	mov	fp, r6
  102d54:	e58d103c 	str	r1, [sp, #60]
  102d58:	e58d0038 	str	r0, [sp, #56]
  102d5c:	eafff9e7 	b	101500 <prog+0x14bc>
  102d60:	e59d3680 	ldr	r3, [sp, #1664]
  102d64:	e3530000 	cmp	r3, #0	; 0x0
  102d68:	1a000031 	bne	102e34 <prog+0x2df0>
  102d6c:	e3a03000 	mov	r3, #0	; 0x0
  102d70:	e58d367c 	str	r3, [sp, #1660]
  102d74:	eafff988 	b	10139c <prog+0x1358>
  102d78:	e3570066 	cmp	r7, #102	; 0x66
  102d7c:	159d06a8 	ldrne	r0, [sp, #1704]
  102d80:	1affff13 	bne	1029d4 <prog+0x2990>
  102d84:	e59db6a8 	ldr	fp, [sp, #1704]
  102d88:	e35b0000 	cmp	fp, #0	; 0x0
  102d8c:	da00003e 	ble	102e8c <prog+0x2e48>
  102d90:	e3560000 	cmp	r6, #0	; 0x0
  102d94:	1a00002d 	bne	102e50 <prog+0x2e0c>
  102d98:	e59dc054 	ldr	ip, [sp, #84]
  102d9c:	e31c0001 	tst	ip, #1	; 0x1
  102da0:	1a00002a 	bne	102e50 <prog+0x2e0c>
  102da4:	e35b0000 	cmp	fp, #0	; 0x0
  102da8:	a1a0100b 	movge	r1, fp
  102dac:	b3a01000 	movlt	r1, #0	; 0x0
  102db0:	e58d103c 	str	r1, [sp, #60]
  102db4:	eaffff11 	b	102a00 <prog+0x29bc>
  102db8:	e59d2054 	ldr	r2, [sp, #84]
  102dbc:	e3120001 	tst	r2, #1	; 0x1
  102dc0:	1affffb8 	bne	102ca8 <prog+0x2c64>
  102dc4:	e35b0000 	cmp	fp, #0	; 0x0
  102dc8:	a1a0300b 	movge	r3, fp
  102dcc:	b3a03000 	movlt	r3, #0	; 0x0
  102dd0:	e58d303c 	str	r3, [sp, #60]
  102dd4:	eaffff09 	b	102a00 <prog+0x29bc>
  102dd8:	e3500000 	cmp	r0, #0	; 0x0
  102ddc:	c3a00001 	movgt	r0, #1	; 0x1
  102de0:	d26b0002 	rsble	r0, fp, #2	; 0x2
  102de4:	e080b005 	add	fp, r0, r5
  102de8:	e35b0000 	cmp	fp, #0	; 0x0
  102dec:	a1a0400b 	movge	r4, fp
  102df0:	b3a04000 	movlt	r4, #0	; 0x0
  102df4:	e58d403c 	str	r4, [sp, #60]
  102df8:	eaffff00 	b	102a00 <prog+0x29bc>
  102dfc:	e5d23000 	ldrb	r3, [r2]
  102e00:	e3530030 	cmp	r3, #48	; 0x30
  102e04:	1a000007 	bne	102e28 <prog+0x2de4>
  102e08:	e1a00004 	mov	r0, r4
  102e0c:	e1a01005 	mov	r1, r5
  102e10:	e3a02000 	mov	r2, #0	; 0x0
  102e14:	e3a03000 	mov	r3, #0	; 0x0
  102e18:	eb001581 	bl	108424 <__nedf2>
  102e1c:	e3500000 	cmp	r0, #0	; 0x0
  102e20:	126b0001 	rsbne	r0, fp, #1	; 0x1
  102e24:	158d06a8 	strne	r0, [sp, #1704]
  102e28:	e59d06a8 	ldr	r0, [sp, #1704]
  102e2c:	e0899000 	add	r9, r9, r0
  102e30:	eafffec3 	b	102944 <prog+0x2900>
  102e34:	e28d1e67 	add	r1, sp, #1648	; 0x670
  102e38:	e1a0000a 	mov	r0, sl
  102e3c:	e2811008 	add	r1, r1, #8	; 0x8
  102e40:	ebfff851 	bl	100f8c <__sprint>
  102e44:	e3500000 	cmp	r0, #0	; 0x0
  102e48:	1afff953 	bne	10139c <prog+0x1358>
  102e4c:	eaffffc6 	b	102d6c <prog+0x2d28>
  102e50:	e28b3001 	add	r3, fp, #1	; 0x1
  102e54:	e086b003 	add	fp, r6, r3
  102e58:	e35b0000 	cmp	fp, #0	; 0x0
  102e5c:	a1a0200b 	movge	r2, fp
  102e60:	b3a02000 	movlt	r2, #0	; 0x0
  102e64:	e58d203c 	str	r2, [sp, #60]
  102e68:	eafffee4 	b	102a00 <prog+0x29bc>
  102e6c:	e5996000 	ldr	r6, [r9]
  102e70:	e3560000 	cmp	r6, #0	; 0x0
  102e74:	e2891004 	add	r1, r9, #4	; 0x4
  102e78:	ba000015 	blt	102ed4 <prog+0x2e90>
  102e7c:	e58d2018 	str	r2, [sp, #24]
  102e80:	e5d23000 	ldrb	r3, [r2]
  102e84:	e1a09001 	mov	r9, r1
  102e88:	eafff8cd 	b	1011c4 <_vfprintf_r+0x1f8>
  102e8c:	e3560000 	cmp	r6, #0	; 0x0
  102e90:	1a000005 	bne	102eac <prog+0x2e68>
  102e94:	e59d3054 	ldr	r3, [sp, #84]
  102e98:	e3130001 	tst	r3, #1	; 0x1
  102e9c:	03a04001 	moveq	r4, #1	; 0x1
  102ea0:	058d403c 	streq	r4, [sp, #60]
  102ea4:	01a0b004 	moveq	fp, r4
  102ea8:	0afffed4 	beq	102a00 <prog+0x29bc>
  102eac:	e286b002 	add	fp, r6, #2	; 0x2
  102eb0:	e35b0000 	cmp	fp, #0	; 0x0
  102eb4:	a1a0c00b 	movge	ip, fp
  102eb8:	b3a0c000 	movlt	ip, #0	; 0x0
  102ebc:	e58dc03c 	str	ip, [sp, #60]
  102ec0:	eafffece 	b	102a00 <prog+0x29bc>
  102ec4:	e1da30bc 	ldrh	r3, [sl, #12]
  102ec8:	e3833040 	orr	r3, r3, #64	; 0x40
  102ecc:	e1ca30bc 	strh	r3, [sl, #12]
  102ed0:	eafff92e 	b	101390 <prog+0x134c>
  102ed4:	e58d2018 	str	r2, [sp, #24]
  102ed8:	e5d23000 	ldrb	r3, [r2]
  102edc:	e1a09001 	mov	r9, r1
  102ee0:	e3e06000 	mvn	r6, #0	; 0x0
  102ee4:	eafff8b6 	b	1011c4 <_vfprintf_r+0x1f8>

00102ee8 <vfprintf>:
  102ee8:	e52de004 	str	lr, [sp, #-4]!
  102eec:	e1a03002 	mov	r3, r2
  102ef0:	e59f2018 	ldr	r2, [pc, #24]	; 102f10 <prog+0x2ecc>
  102ef4:	e1a0c000 	mov	ip, r0
  102ef8:	e1a0e001 	mov	lr, r1
  102efc:	e5920000 	ldr	r0, [r2]
  102f00:	e1a0100c 	mov	r1, ip
  102f04:	e1a0200e 	mov	r2, lr
  102f08:	e49de004 	ldr	lr, [sp], #4
  102f0c:	eafff82e 	b	100fcc <_vfprintf_r>
  102f10:	00200410 	eoreq	r0, r0, r0, lsl r4

00102f14 <_wcrtomb_r>:
  102f14:	e92d4030 	stmdb	sp!, {r4, r5, lr}
  102f18:	e251c000 	subs	ip, r1, #0	; 0x0
  102f1c:	e24dd00c 	sub	sp, sp, #12	; 0xc
  102f20:	e1a05000 	mov	r5, r0
  102f24:	e1a04003 	mov	r4, r3
  102f28:	0a00000a 	beq	102f58 <_wcrtomb_r+0x44>
  102f2c:	eb000076 	bl	10310c <_wctomb_r>
  102f30:	e3700001 	cmn	r0, #1	; 0x1
  102f34:	e1a01000 	mov	r1, r0
  102f38:	11a01000 	movne	r1, r0
  102f3c:	03a03000 	moveq	r3, #0	; 0x0
  102f40:	03a0208a 	moveq	r2, #138	; 0x8a
  102f44:	e1a00001 	mov	r0, r1
  102f48:	05843000 	streq	r3, [r4]
  102f4c:	05852000 	streq	r2, [r5]
  102f50:	e28dd00c 	add	sp, sp, #12	; 0xc
  102f54:	e8bd8030 	ldmia	sp!, {r4, r5, pc}
  102f58:	e1a0200c 	mov	r2, ip
  102f5c:	e28d1002 	add	r1, sp, #2	; 0x2
  102f60:	eb000069 	bl	10310c <_wctomb_r>
  102f64:	eafffff1 	b	102f30 <_wcrtomb_r+0x1c>

00102f68 <wcrtomb>:
  102f68:	e52de004 	str	lr, [sp, #-4]!
  102f6c:	e1a03002 	mov	r3, r2
  102f70:	e59f2018 	ldr	r2, [pc, #24]	; 102f90 <prog+0x2f4c>
  102f74:	e1a0c000 	mov	ip, r0
  102f78:	e1a0e001 	mov	lr, r1
  102f7c:	e5920000 	ldr	r0, [r2]
  102f80:	e1a0100c 	mov	r1, ip
  102f84:	e1a0200e 	mov	r2, lr
  102f88:	e49de004 	ldr	lr, [sp], #4
  102f8c:	eaffffe0 	b	102f14 <_wcrtomb_r>
  102f90:	00200410 	eoreq	r0, r0, r0, lsl r4

00102f94 <_wcsrtombs_r>:
  102f94:	e92d4ff0 	stmdb	sp!, {r4, r5, r6, r7, r8, r9, sl, fp, lr}
  102f98:	e3510000 	cmp	r1, #0	; 0x0
  102f9c:	e24dd014 	sub	sp, sp, #20	; 0x14
  102fa0:	e58d1000 	str	r1, [sp]
  102fa4:	e58d0004 	str	r0, [sp, #4]
  102fa8:	e1a0b002 	mov	fp, r2
  102fac:	e1a06003 	mov	r6, r3
  102fb0:	e59d9038 	ldr	r9, [sp, #56]
  102fb4:	0a000039 	beq	1030a0 <_wcsrtombs_r+0x10c>
  102fb8:	e3530000 	cmp	r3, #0	; 0x0
  102fbc:	e5928000 	ldr	r8, [r2]
  102fc0:	0a000039 	beq	1030ac <_wcsrtombs_r+0x118>
  102fc4:	e59d4000 	ldr	r4, [sp]
  102fc8:	e3a05000 	mov	r5, #0	; 0x0
  102fcc:	e59d0004 	ldr	r0, [sp, #4]
  102fd0:	e28d100a 	add	r1, sp, #10	; 0xa
  102fd4:	e5982000 	ldr	r2, [r8]
  102fd8:	e1a03009 	mov	r3, r9
  102fdc:	e599a000 	ldr	sl, [r9]
  102fe0:	e5997004 	ldr	r7, [r9, #4]
  102fe4:	ebffffca 	bl	102f14 <_wcrtomb_r>
  102fe8:	e3700001 	cmn	r0, #1	; 0x1
  102fec:	0a00001f 	beq	103070 <_wcsrtombs_r+0xdc>
  102ff0:	e0603006 	rsb	r3, r0, r6
  102ff4:	e1530005 	cmp	r3, r5
  102ff8:	33a02000 	movcc	r2, #0	; 0x0
  102ffc:	23a02001 	movcs	r2, #1	; 0x1
  103000:	e1500006 	cmp	r0, r6
  103004:	23a02000 	movcs	r2, #0	; 0x0
  103008:	e3520000 	cmp	r2, #0	; 0x0
  10300c:	0a000020 	beq	103094 <_wcsrtombs_r+0x100>
  103010:	e59d1000 	ldr	r1, [sp]
  103014:	e3510000 	cmp	r1, #0	; 0x0
  103018:	e0855000 	add	r5, r5, r0
  10301c:	0a00000c 	beq	103054 <_wcsrtombs_r+0xc0>
  103020:	e3500000 	cmp	r0, #0	; 0x0
  103024:	da000007 	ble	103048 <_wcsrtombs_r+0xb4>
  103028:	e3a02000 	mov	r2, #0	; 0x0
  10302c:	e282100a 	add	r1, r2, #10	; 0xa
  103030:	e7d1300d 	ldrb	r3, [r1, sp]
  103034:	e7c23004 	strb	r3, [r2, r4]
  103038:	e2822001 	add	r2, r2, #1	; 0x1
  10303c:	e1500002 	cmp	r0, r2
  103040:	1afffff9 	bne	10302c <_wcsrtombs_r+0x98>
  103044:	e0844000 	add	r4, r4, r0
  103048:	e59b3000 	ldr	r3, [fp]
  10304c:	e2833004 	add	r3, r3, #4	; 0x4
  103050:	e58b3000 	str	r3, [fp]
  103054:	e5983000 	ldr	r3, [r8]
  103058:	e3530000 	cmp	r3, #0	; 0x0
  10305c:	0a000014 	beq	1030b4 <_wcsrtombs_r+0x120>
  103060:	e1550006 	cmp	r5, r6
  103064:	2a000007 	bcs	103088 <_wcsrtombs_r+0xf4>
  103068:	e2888004 	add	r8, r8, #4	; 0x4
  10306c:	eaffffd6 	b	102fcc <_wcsrtombs_r+0x38>
  103070:	e59d1004 	ldr	r1, [sp, #4]
  103074:	e3a0308a 	mov	r3, #138	; 0x8a
  103078:	e3a02000 	mov	r2, #0	; 0x0
  10307c:	e5813000 	str	r3, [r1]
  103080:	e5892000 	str	r2, [r9]
  103084:	e1a05000 	mov	r5, r0
  103088:	e1a00005 	mov	r0, r5
  10308c:	e28dd014 	add	sp, sp, #20	; 0x14
  103090:	e8bd8ff0 	ldmia	sp!, {r4, r5, r6, r7, r8, r9, sl, fp, pc}
  103094:	e5897004 	str	r7, [r9, #4]
  103098:	e589a000 	str	sl, [r9]
  10309c:	eafffff9 	b	103088 <_wcsrtombs_r+0xf4>
  1030a0:	e5928000 	ldr	r8, [r2]
  1030a4:	e3e06000 	mvn	r6, #0	; 0x0
  1030a8:	eaffffc5 	b	102fc4 <_wcsrtombs_r+0x30>
  1030ac:	e3a05000 	mov	r5, #0	; 0x0
  1030b0:	eafffff4 	b	103088 <_wcsrtombs_r+0xf4>
  1030b4:	e59d2000 	ldr	r2, [sp]
  1030b8:	e2455001 	sub	r5, r5, #1	; 0x1
  1030bc:	e3520000 	cmp	r2, #0	; 0x0
  1030c0:	158b3000 	strne	r3, [fp]
  1030c4:	e5893000 	str	r3, [r9]
  1030c8:	eaffffee 	b	103088 <_wcsrtombs_r+0xf4>

001030cc <wcsrtombs>:
  1030cc:	e92d4030 	stmdb	sp!, {r4, r5, lr}
  1030d0:	e59fc030 	ldr	ip, [pc, #48]	; 103108 <prog+0x30c4>
  1030d4:	e59ce000 	ldr	lr, [ip]
  1030d8:	e1a04000 	mov	r4, r0
  1030dc:	e1a0c001 	mov	ip, r1
  1030e0:	e1a05002 	mov	r5, r2
  1030e4:	e24dd004 	sub	sp, sp, #4	; 0x4
  1030e8:	e58d3000 	str	r3, [sp]
  1030ec:	e1a0000e 	mov	r0, lr
  1030f0:	e1a01004 	mov	r1, r4
  1030f4:	e1a0200c 	mov	r2, ip
  1030f8:	e1a03005 	mov	r3, r5
  1030fc:	ebffffa4 	bl	102f94 <_wcsrtombs_r>
  103100:	e28dd004 	add	sp, sp, #4	; 0x4
  103104:	e8bd8030 	ldmia	sp!, {r4, r5, pc}
  103108:	00200410 	eoreq	r0, r0, r0, lsl r4

0010310c <_wctomb_r>:
  10310c:	e92d40f0 	stmdb	sp!, {r4, r5, r6, r7, lr}
  103110:	e59f0400 	ldr	r0, [pc, #1024]	; 103518 <prog+0x34d4>
  103114:	e1a07001 	mov	r7, r1
  103118:	e1a04002 	mov	r4, r2
  10311c:	e1a05003 	mov	r5, r3
  103120:	ebfff730 	bl	100de8 <strlen>
  103124:	e3500001 	cmp	r0, #1	; 0x1
  103128:	9a000025 	bls	1031c4 <_wctomb_r+0xb8>
  10312c:	e59f03e4 	ldr	r0, [pc, #996]	; 103518 <prog+0x34d4>
  103130:	e59f13e4 	ldr	r1, [pc, #996]	; 10351c <prog+0x34d8>
  103134:	eb000fa2 	bl	106fc4 <strcmp>
  103138:	e3500000 	cmp	r0, #0	; 0x0
  10313c:	1a000012 	bne	10318c <_wctomb_r+0x80>
  103140:	e3570000 	cmp	r7, #0	; 0x0
  103144:	0a000020 	beq	1031cc <_wctomb_r+0xc0>
  103148:	e354007f 	cmp	r4, #127	; 0x7f
  10314c:	da000018 	ble	1031b4 <_wctomb_r+0xa8>
  103150:	e2443080 	sub	r3, r4, #128	; 0x80
  103154:	e3530d1e 	cmp	r3, #1920	; 0x780
  103158:	2a000063 	bcs	1032ec <_wctomb_r+0x1e0>
  10315c:	e2043d1f 	and	r3, r4, #1984	; 0x7c0
  103160:	e204203f 	and	r2, r4, #63	; 0x3f
  103164:	e1a03343 	mov	r3, r3, asr #6
  103168:	e3a06002 	mov	r6, #2	; 0x2
  10316c:	e1e03d03 	mvn	r3, r3, lsl #26
  103170:	e1e02c82 	mvn	r2, r2, lsl #25
  103174:	e1e03d23 	mvn	r3, r3, lsr #26
  103178:	e1e02ca2 	mvn	r2, r2, lsr #25
  10317c:	e1a00006 	mov	r0, r6
  103180:	e5c72001 	strb	r2, [r7, #1]
  103184:	e5c73000 	strb	r3, [r7]
  103188:	e8bd80f0 	ldmia	sp!, {r4, r5, r6, r7, pc}
  10318c:	e59f0384 	ldr	r0, [pc, #900]	; 103518 <prog+0x34d4>
  103190:	e59f1388 	ldr	r1, [pc, #904]	; 103520 <prog+0x34dc>
  103194:	eb000f8a 	bl	106fc4 <strcmp>
  103198:	e3500000 	cmp	r0, #0	; 0x0
  10319c:	1a00000d 	bne	1031d8 <_wctomb_r+0xcc>
  1031a0:	e3570000 	cmp	r7, #0	; 0x0
  1031a4:	0a000008 	beq	1031cc <_wctomb_r+0xc0>
  1031a8:	e1a03444 	mov	r3, r4, asr #8
  1031ac:	e213e0ff 	ands	lr, r3, #255	; 0xff
  1031b0:	1a000034 	bne	103288 <_wctomb_r+0x17c>
  1031b4:	e5c74000 	strb	r4, [r7]
  1031b8:	e3a06001 	mov	r6, #1	; 0x1
  1031bc:	e1a00006 	mov	r0, r6
  1031c0:	e8bd80f0 	ldmia	sp!, {r4, r5, r6, r7, pc}
  1031c4:	e3570000 	cmp	r7, #0	; 0x0
  1031c8:	1afffff9 	bne	1031b4 <_wctomb_r+0xa8>
  1031cc:	e3a06000 	mov	r6, #0	; 0x0
  1031d0:	e1a00006 	mov	r0, r6
  1031d4:	e8bd80f0 	ldmia	sp!, {r4, r5, r6, r7, pc}
  1031d8:	e59f0338 	ldr	r0, [pc, #824]	; 103518 <prog+0x34d4>
  1031dc:	e59f1340 	ldr	r1, [pc, #832]	; 103524 <prog+0x34e0>
  1031e0:	eb000f77 	bl	106fc4 <strcmp>
  1031e4:	e3500000 	cmp	r0, #0	; 0x0
  1031e8:	1a00000a 	bne	103218 <_wctomb_r+0x10c>
  1031ec:	e3570000 	cmp	r7, #0	; 0x0
  1031f0:	0afffff5 	beq	1031cc <_wctomb_r+0xc0>
  1031f4:	e1a03444 	mov	r3, r4, asr #8
  1031f8:	e213e0ff 	ands	lr, r3, #255	; 0xff
  1031fc:	0affffec 	beq	1031b4 <_wctomb_r+0xa8>
  103200:	e28e305f 	add	r3, lr, #95	; 0x5f
  103204:	e20330ff 	and	r3, r3, #255	; 0xff
  103208:	e353005d 	cmp	r3, #93	; 0x5d
  10320c:	9a00002f 	bls	1032d0 <_wctomb_r+0x1c4>
  103210:	e3e06000 	mvn	r6, #0	; 0x0
  103214:	eaffffe8 	b	1031bc <_wctomb_r+0xb0>
  103218:	e59f02f8 	ldr	r0, [pc, #760]	; 103518 <prog+0x34d4>
  10321c:	e59f1304 	ldr	r1, [pc, #772]	; 103528 <prog+0x34e4>
  103220:	eb000f67 	bl	106fc4 <strcmp>
  103224:	e3500000 	cmp	r0, #0	; 0x0
  103228:	1affffe5 	bne	1031c4 <_wctomb_r+0xb8>
  10322c:	e3570000 	cmp	r7, #0	; 0x0
  103230:	03a06001 	moveq	r6, #1	; 0x1
  103234:	0affffe0 	beq	1031bc <_wctomb_r+0xb0>
  103238:	e1a03444 	mov	r3, r4, asr #8
  10323c:	e213e0ff 	ands	lr, r3, #255	; 0xff
  103240:	e20400ff 	and	r0, r4, #255	; 0xff
  103244:	1a000044 	bne	10335c <_wctomb_r+0x250>
  103248:	e5953000 	ldr	r3, [r5]
  10324c:	e3530000 	cmp	r3, #0	; 0x0
  103250:	03a06001 	moveq	r6, #1	; 0x1
  103254:	0a000009 	beq	103280 <_wctomb_r+0x174>
  103258:	e1a01007 	mov	r1, r7
  10325c:	e3a0301b 	mov	r3, #27	; 0x1b
  103260:	e585e000 	str	lr, [r5]
  103264:	e4c13001 	strb	r3, [r1], #1
  103268:	e3a02028 	mov	r2, #40	; 0x28
  10326c:	e2833027 	add	r3, r3, #39	; 0x27
  103270:	e5c72001 	strb	r2, [r7, #1]
  103274:	e5c13001 	strb	r3, [r1, #1]
  103278:	e2817002 	add	r7, r1, #2	; 0x2
  10327c:	e3a06004 	mov	r6, #4	; 0x4
  103280:	e5c70000 	strb	r0, [r7]
  103284:	eaffffcc 	b	1031bc <_wctomb_r+0xb0>
  103288:	e28e207f 	add	r2, lr, #127	; 0x7f
  10328c:	e28e3020 	add	r3, lr, #32	; 0x20
  103290:	e20220ff 	and	r2, r2, #255	; 0xff
  103294:	e20330ff 	and	r3, r3, #255	; 0xff
  103298:	e353000f 	cmp	r3, #15	; 0xf
  10329c:	8352001e 	cmphi	r2, #30	; 0x1e
  1032a0:	8affffda 	bhi	103210 <_wctomb_r+0x104>
  1032a4:	e20400ff 	and	r0, r4, #255	; 0xff
  1032a8:	e2403080 	sub	r3, r0, #128	; 0x80
  1032ac:	e20330ff 	and	r3, r3, #255	; 0xff
  1032b0:	e2402040 	sub	r2, r0, #64	; 0x40
  1032b4:	e353007c 	cmp	r3, #124	; 0x7c
  1032b8:	8352003e 	cmphi	r2, #62	; 0x3e
  1032bc:	8affffd3 	bhi	103210 <_wctomb_r+0x104>
  1032c0:	e3a06002 	mov	r6, #2	; 0x2
  1032c4:	e5c70001 	strb	r0, [r7, #1]
  1032c8:	e5c7e000 	strb	lr, [r7]
  1032cc:	eaffffba 	b	1031bc <_wctomb_r+0xb0>
  1032d0:	e20400ff 	and	r0, r4, #255	; 0xff
  1032d4:	e280305f 	add	r3, r0, #95	; 0x5f
  1032d8:	e20330ff 	and	r3, r3, #255	; 0xff
  1032dc:	e353005d 	cmp	r3, #93	; 0x5d
  1032e0:	9afffff6 	bls	1032c0 <_wctomb_r+0x1b4>
  1032e4:	e3e06000 	mvn	r6, #0	; 0x0
  1032e8:	eaffffb3 	b	1031bc <_wctomb_r+0xb0>
  1032ec:	e2443b02 	sub	r3, r4, #2048	; 0x800
  1032f0:	e3530b3e 	cmp	r3, #63488	; 0xf800
  1032f4:	3a00004f 	bcc	103438 <_wctomb_r+0x32c>
  1032f8:	e2443801 	sub	r3, r4, #65536	; 0x10000
  1032fc:	e353081f 	cmp	r3, #2031616	; 0x1f0000
  103300:	2a00002d 	bcs	1033bc <_wctomb_r+0x2b0>
  103304:	e2043707 	and	r3, r4, #1835008	; 0x1c0000
  103308:	e1a03943 	mov	r3, r3, asr #18
  10330c:	e1e03e03 	mvn	r3, r3, lsl #28
  103310:	e2042a3f 	and	r2, r4, #258048	; 0x3f000
  103314:	e2041d3f 	and	r1, r4, #4032	; 0xfc0
  103318:	e1a0c007 	mov	ip, r7
  10331c:	e1e03e23 	mvn	r3, r3, lsr #28
  103320:	e1a02642 	mov	r2, r2, asr #12
  103324:	e1a01341 	mov	r1, r1, asr #6
  103328:	e204003f 	and	r0, r4, #63	; 0x3f
  10332c:	e4cc3001 	strb	r3, [ip], #1
  103330:	e1e02c82 	mvn	r2, r2, lsl #25
  103334:	e1e01c81 	mvn	r1, r1, lsl #25
  103338:	e1e00c80 	mvn	r0, r0, lsl #25
  10333c:	e1e02ca2 	mvn	r2, r2, lsr #25
  103340:	e1e01ca1 	mvn	r1, r1, lsr #25
  103344:	e1e00ca0 	mvn	r0, r0, lsr #25
  103348:	e3a06004 	mov	r6, #4	; 0x4
  10334c:	e5c72001 	strb	r2, [r7, #1]
  103350:	e5cc0002 	strb	r0, [ip, #2]
  103354:	e5cc1001 	strb	r1, [ip, #1]
  103358:	eaffff97 	b	1031bc <_wctomb_r+0xb0>
  10335c:	e24e3021 	sub	r3, lr, #33	; 0x21
  103360:	e353005d 	cmp	r3, #93	; 0x5d
  103364:	8affffa9 	bhi	103210 <_wctomb_r+0x104>
  103368:	e2403021 	sub	r3, r0, #33	; 0x21
  10336c:	e353005d 	cmp	r3, #93	; 0x5d
  103370:	8affffa6 	bhi	103210 <_wctomb_r+0x104>
  103374:	e5953000 	ldr	r3, [r5]
  103378:	e3530000 	cmp	r3, #0	; 0x0
  10337c:	13a06002 	movne	r6, #2	; 0x2
  103380:	1a00000a 	bne	1033b0 <_wctomb_r+0x2a4>
  103384:	e1a01007 	mov	r1, r7
  103388:	e3a03001 	mov	r3, #1	; 0x1
  10338c:	e3a0201b 	mov	r2, #27	; 0x1b
  103390:	e5853000 	str	r3, [r5]
  103394:	e4c12001 	strb	r2, [r1], #1
  103398:	e2833023 	add	r3, r3, #35	; 0x23
  10339c:	e2822027 	add	r2, r2, #39	; 0x27
  1033a0:	e5c73001 	strb	r3, [r7, #1]
  1033a4:	e5c12001 	strb	r2, [r1, #1]
  1033a8:	e2817002 	add	r7, r1, #2	; 0x2
  1033ac:	e3a06005 	mov	r6, #5	; 0x5
  1033b0:	e5c70001 	strb	r0, [r7, #1]
  1033b4:	e5c7e000 	strb	lr, [r7]
  1033b8:	eaffff7f 	b	1031bc <_wctomb_r+0xb0>
  1033bc:	e2443602 	sub	r3, r4, #2097152	; 0x200000
  1033c0:	e353063e 	cmp	r3, #65011712	; 0x3e00000
  1033c4:	2a00002f 	bcs	103488 <_wctomb_r+0x37c>
  1033c8:	e2043403 	and	r3, r4, #50331648	; 0x3000000
  1033cc:	e1a03c43 	mov	r3, r3, asr #24
  1033d0:	e1e03e83 	mvn	r3, r3, lsl #29
  1033d4:	e1a0e007 	mov	lr, r7
  1033d8:	e1e03ea3 	mvn	r3, r3, lsr #29
  1033dc:	e204273f 	and	r2, r4, #16515072	; 0xfc0000
  1033e0:	e2041a3f 	and	r1, r4, #258048	; 0x3f000
  1033e4:	e2040d3f 	and	r0, r4, #4032	; 0xfc0
  1033e8:	e4ce3001 	strb	r3, [lr], #1
  1033ec:	e1a02942 	mov	r2, r2, asr #18
  1033f0:	e1a01641 	mov	r1, r1, asr #12
  1033f4:	e1a00340 	mov	r0, r0, asr #6
  1033f8:	e204303f 	and	r3, r4, #63	; 0x3f
  1033fc:	e1e02c82 	mvn	r2, r2, lsl #25
  103400:	e1e01c81 	mvn	r1, r1, lsl #25
  103404:	e1e00c80 	mvn	r0, r0, lsl #25
  103408:	e1e03c83 	mvn	r3, r3, lsl #25
  10340c:	e28ec001 	add	ip, lr, #1	; 0x1
  103410:	e1e02ca2 	mvn	r2, r2, lsr #25
  103414:	e1e01ca1 	mvn	r1, r1, lsr #25
  103418:	e1e00ca0 	mvn	r0, r0, lsr #25
  10341c:	e1e03ca3 	mvn	r3, r3, lsr #25
  103420:	e3a06005 	mov	r6, #5	; 0x5
  103424:	e5c72001 	strb	r2, [r7, #1]
  103428:	e5ce1001 	strb	r1, [lr, #1]
  10342c:	e5cc3002 	strb	r3, [ip, #2]
  103430:	e5cc0001 	strb	r0, [ip, #1]
  103434:	eaffff60 	b	1031bc <_wctomb_r+0xb0>
  103438:	e2443b36 	sub	r3, r4, #55296	; 0xd800
  10343c:	e3530b02 	cmp	r3, #2048	; 0x800
  103440:	3affff72 	bcc	103210 <_wctomb_r+0x104>
  103444:	e2043a0f 	and	r3, r4, #61440	; 0xf000
  103448:	e1a03643 	mov	r3, r3, asr #12
  10344c:	e1e03d83 	mvn	r3, r3, lsl #27
  103450:	e2042d3f 	and	r2, r4, #4032	; 0xfc0
  103454:	e1a00007 	mov	r0, r7
  103458:	e1e03da3 	mvn	r3, r3, lsr #27
  10345c:	e1a02342 	mov	r2, r2, asr #6
  103460:	e204103f 	and	r1, r4, #63	; 0x3f
  103464:	e4c03001 	strb	r3, [r0], #1
  103468:	e1e02c82 	mvn	r2, r2, lsl #25
  10346c:	e1e01c81 	mvn	r1, r1, lsl #25
  103470:	e1e02ca2 	mvn	r2, r2, lsr #25
  103474:	e1e01ca1 	mvn	r1, r1, lsr #25
  103478:	e3a06003 	mov	r6, #3	; 0x3
  10347c:	e5c72001 	strb	r2, [r7, #1]
  103480:	e5c01001 	strb	r1, [r0, #1]
  103484:	eaffff4c 	b	1031bc <_wctomb_r+0xb0>
  103488:	e374037f 	cmn	r4, #-67108863	; 0xfc000001
  10348c:	daffff5f 	ble	103210 <_wctomb_r+0x104>
  103490:	e2043101 	and	r3, r4, #1073741824	; 0x40000000
  103494:	e1a03f43 	mov	r3, r3, asr #30
  103498:	e1e03f03 	mvn	r3, r3, lsl #30
  10349c:	e1a0e007 	mov	lr, r7
  1034a0:	e1e03f23 	mvn	r3, r3, lsr #30
  1034a4:	e4ce3001 	strb	r3, [lr], #1
  1034a8:	e204243f 	and	r2, r4, #1056964608	; 0x3f000000
  1034ac:	e204373f 	and	r3, r4, #16515072	; 0xfc0000
  1034b0:	e2041a3f 	and	r1, r4, #258048	; 0x3f000
  1034b4:	e2040d3f 	and	r0, r4, #4032	; 0xfc0
  1034b8:	e204c03f 	and	ip, r4, #63	; 0x3f
  1034bc:	e1a02c42 	mov	r2, r2, asr #24
  1034c0:	e1a03943 	mov	r3, r3, asr #18
  1034c4:	e1a01641 	mov	r1, r1, asr #12
  1034c8:	e1a00340 	mov	r0, r0, asr #6
  1034cc:	e28e5001 	add	r5, lr, #1	; 0x1
  1034d0:	e1e02c82 	mvn	r2, r2, lsl #25
  1034d4:	e1e03c83 	mvn	r3, r3, lsl #25
  1034d8:	e1e01c81 	mvn	r1, r1, lsl #25
  1034dc:	e1e00c80 	mvn	r0, r0, lsl #25
  1034e0:	e1e0cc8c 	mvn	ip, ip, lsl #25
  1034e4:	e2854001 	add	r4, r5, #1	; 0x1
  1034e8:	e1e02ca2 	mvn	r2, r2, lsr #25
  1034ec:	e1e03ca3 	mvn	r3, r3, lsr #25
  1034f0:	e1e01ca1 	mvn	r1, r1, lsr #25
  1034f4:	e1e00ca0 	mvn	r0, r0, lsr #25
  1034f8:	e1e0ccac 	mvn	ip, ip, lsr #25
  1034fc:	e3a06006 	mov	r6, #6	; 0x6
  103500:	e5c72001 	strb	r2, [r7, #1]
  103504:	e5ce3001 	strb	r3, [lr, #1]
  103508:	e5c51001 	strb	r1, [r5, #1]
  10350c:	e5c4c002 	strb	ip, [r4, #2]
  103510:	e5c40001 	strb	r0, [r4, #1]
  103514:	eaffff28 	b	1031bc <_wctomb_r+0xb0>
  103518:	00200818 	eoreq	r0, r0, r8, lsl r8
  10351c:	0010cf5c 	andeqs	ip, r0, ip, asr pc
  103520:	0010cf64 	andeqs	ip, r0, r4, ror #30
  103524:	0010cf6c 	andeqs	ip, r0, ip, ror #30
  103528:	0010cf74 	andeqs	ip, r0, r4, ror pc

0010352c <__swsetup>:
  10352c:	e92d4070 	stmdb	sp!, {r4, r5, r6, lr}
  103530:	e59f60ec 	ldr	r6, [pc, #236]	; 103624 <prog+0x35e0>
  103534:	e5962000 	ldr	r2, [r6]
  103538:	e3520000 	cmp	r2, #0	; 0x0
  10353c:	e1a04000 	mov	r4, r0
  103540:	0a000002 	beq	103550 <__swsetup+0x24>
  103544:	e5923038 	ldr	r3, [r2, #56]
  103548:	e3530000 	cmp	r3, #0	; 0x0
  10354c:	0a000015 	beq	1035a8 <__swsetup+0x7c>
  103550:	e1d420bc 	ldrh	r2, [r4, #12]
  103554:	e2125008 	ands	r5, r2, #8	; 0x8
  103558:	15941010 	ldrne	r1, [r4, #16]
  10355c:	0a000017 	beq	1035c0 <__swsetup+0x94>
  103560:	e3510000 	cmp	r1, #0	; 0x0
  103564:	0a000012 	beq	1035b4 <__swsetup+0x88>
  103568:	e1d430bc 	ldrh	r3, [r4, #12]
  10356c:	e2132001 	ands	r2, r3, #1	; 0x1
  103570:	1a000005 	bne	10358c <__swsetup+0x60>
  103574:	e3130002 	tst	r3, #2	; 0x2
  103578:	05943014 	ldreq	r3, [r4, #20]
  10357c:	11a03002 	movne	r3, r2
  103580:	e3a00000 	mov	r0, #0	; 0x0
  103584:	e5843008 	str	r3, [r4, #8]
  103588:	e8bd8070 	ldmia	sp!, {r4, r5, r6, pc}
  10358c:	e5943014 	ldr	r3, [r4, #20]
  103590:	e3a02000 	mov	r2, #0	; 0x0
  103594:	e2633000 	rsb	r3, r3, #0	; 0x0
  103598:	e1a00002 	mov	r0, r2
  10359c:	e5843018 	str	r3, [r4, #24]
  1035a0:	e5842008 	str	r2, [r4, #8]
  1035a4:	e8bd8070 	ldmia	sp!, {r4, r5, r6, pc}
  1035a8:	e1a00002 	mov	r0, r2
  1035ac:	eb000603 	bl	104dc0 <__sinit>
  1035b0:	eaffffe6 	b	103550 <__swsetup+0x24>
  1035b4:	e1a00004 	mov	r0, r4
  1035b8:	eb0008d7 	bl	10591c <__smakebuf>
  1035bc:	eaffffe9 	b	103568 <__swsetup+0x3c>
  1035c0:	e3120010 	tst	r2, #16	; 0x10
  1035c4:	03e00000 	mvneq	r0, #0	; 0x0
  1035c8:	08bd8070 	ldmeqia	sp!, {r4, r5, r6, pc}
  1035cc:	e3120004 	tst	r2, #4	; 0x4
  1035d0:	05941010 	ldreq	r1, [r4, #16]
  1035d4:	0a00000f 	beq	103618 <__swsetup+0xec>
  1035d8:	e5941030 	ldr	r1, [r4, #48]
  1035dc:	e3510000 	cmp	r1, #0	; 0x0
  1035e0:	0a000006 	beq	103600 <__swsetup+0xd4>
  1035e4:	e2843040 	add	r3, r4, #64	; 0x40
  1035e8:	e1510003 	cmp	r1, r3
  1035ec:	0a000002 	beq	1035fc <__swsetup+0xd0>
  1035f0:	e5960000 	ldr	r0, [r6]
  1035f4:	eb0006b4 	bl	1050cc <_free_r>
  1035f8:	e1d420bc 	ldrh	r2, [r4, #12]
  1035fc:	e5845030 	str	r5, [r4, #48]
  103600:	e3c23024 	bic	r3, r2, #36	; 0x24
  103604:	e1c430bc 	strh	r3, [r4, #12]
  103608:	e5941010 	ldr	r1, [r4, #16]
  10360c:	e3a03000 	mov	r3, #0	; 0x0
  103610:	e1d420bc 	ldrh	r2, [r4, #12]
  103614:	e884000a 	stmia	r4, {r1, r3}
  103618:	e3823008 	orr	r3, r2, #8	; 0x8
  10361c:	e1c430bc 	strh	r3, [r4, #12]
  103620:	eaffffce 	b	103560 <__swsetup+0x34>
  103624:	00200410 	eoreq	r0, r0, r0, lsl r4

00103628 <quorem>:
  103628:	e92d4ff0 	stmdb	sp!, {r4, r5, r6, r7, r8, r9, sl, fp, lr}
  10362c:	e5903010 	ldr	r3, [r0, #16]
  103630:	e5912010 	ldr	r2, [r1, #16]
  103634:	e24dd00c 	sub	sp, sp, #12	; 0xc
  103638:	e1520003 	cmp	r2, r3
  10363c:	e58d0000 	str	r0, [sp]
  103640:	e1a09001 	mov	r9, r1
  103644:	c3a00000 	movgt	r0, #0	; 0x0
  103648:	ca000044 	bgt	103760 <quorem+0x138>
  10364c:	e2815014 	add	r5, r1, #20	; 0x14
  103650:	e59d1000 	ldr	r1, [sp]
  103654:	e2427001 	sub	r7, r2, #1	; 0x1
  103658:	e1a03107 	mov	r3, r7, lsl #2
  10365c:	e2818014 	add	r8, r1, #20	; 0x14
  103660:	e7932008 	ldr	r2, [r3, r8]
  103664:	e7951003 	ldr	r1, [r5, r3]
  103668:	e1a00002 	mov	r0, r2
  10366c:	e2811001 	add	r1, r1, #1	; 0x1
  103670:	e085b003 	add	fp, r5, r3
  103674:	e0833008 	add	r3, r3, r8
  103678:	e98d000c 	stmib	sp, {r2, r3}
  10367c:	ebfff2a4 	bl	100114 <__aeabi_uidiv>
  103680:	e250a000 	subs	sl, r0, #0	; 0x0
  103684:	1a000037 	bne	103768 <quorem+0x140>
  103688:	e1a01009 	mov	r1, r9
  10368c:	e59d0000 	ldr	r0, [sp]
  103690:	eb0009b8 	bl	105d78 <__mcmp>
  103694:	e3500000 	cmp	r0, #0	; 0x0
  103698:	ba00002f 	blt	10375c <quorem+0x134>
  10369c:	e3a04000 	mov	r4, #0	; 0x0
  1036a0:	e28aa001 	add	sl, sl, #1	; 0x1
  1036a4:	e1a0e008 	mov	lr, r8
  1036a8:	e1a00004 	mov	r0, r4
  1036ac:	e4952004 	ldr	r2, [r5], #4
  1036b0:	e1a03802 	mov	r3, r2, lsl #16
  1036b4:	e1a03823 	mov	r3, r3, lsr #16
  1036b8:	e59ec000 	ldr	ip, [lr]
  1036bc:	e0803003 	add	r3, r0, r3
  1036c0:	e1a00823 	mov	r0, r3, lsr #16
  1036c4:	e0800822 	add	r0, r0, r2, lsr #16
  1036c8:	e1a03803 	mov	r3, r3, lsl #16
  1036cc:	e1a0180c 	mov	r1, ip, lsl #16
  1036d0:	e1a02800 	mov	r2, r0, lsl #16
  1036d4:	e1a01821 	mov	r1, r1, lsr #16
  1036d8:	e1a03823 	mov	r3, r3, lsr #16
  1036dc:	e0631001 	rsb	r1, r3, r1
  1036e0:	e1a02822 	mov	r2, r2, lsr #16
  1036e4:	e0811004 	add	r1, r1, r4
  1036e8:	e062282c 	rsb	r2, r2, ip, lsr #16
  1036ec:	e0822841 	add	r2, r2, r1, asr #16
  1036f0:	e15b0005 	cmp	fp, r5
  1036f4:	e1ce20b2 	strh	r2, [lr, #2]
  1036f8:	e1a00820 	mov	r0, r0, lsr #16
  1036fc:	e0ce10b4 	strh	r1, [lr], #4
  103700:	e1a04842 	mov	r4, r2, asr #16
  103704:	2affffe8 	bcs	1036ac <quorem+0x84>
  103708:	e1a02107 	mov	r2, r7, lsl #2
  10370c:	e7983002 	ldr	r3, [r8, r2]
  103710:	e3530000 	cmp	r3, #0	; 0x0
  103714:	e0883002 	add	r3, r8, r2
  103718:	1a00000f 	bne	10375c <quorem+0x134>
  10371c:	e2432004 	sub	r2, r3, #4	; 0x4
  103720:	e1580002 	cmp	r8, r2
  103724:	2a00000a 	bcs	103754 <quorem+0x12c>
  103728:	e5133004 	ldr	r3, [r3, #-4]
  10372c:	e3530000 	cmp	r3, #0	; 0x0
  103730:	0a000003 	beq	103744 <quorem+0x11c>
  103734:	ea000006 	b	103754 <quorem+0x12c>
  103738:	e5923000 	ldr	r3, [r2]
  10373c:	e3530000 	cmp	r3, #0	; 0x0
  103740:	1a000003 	bne	103754 <quorem+0x12c>
  103744:	e2422004 	sub	r2, r2, #4	; 0x4
  103748:	e1580002 	cmp	r8, r2
  10374c:	e2477001 	sub	r7, r7, #1	; 0x1
  103750:	3afffff8 	bcc	103738 <quorem+0x110>
  103754:	e59d3000 	ldr	r3, [sp]
  103758:	e5837010 	str	r7, [r3, #16]
  10375c:	e1a0000a 	mov	r0, sl
  103760:	e28dd00c 	add	sp, sp, #12	; 0xc
  103764:	e8bd8ff0 	ldmia	sp!, {r4, r5, r6, r7, r8, r9, sl, fp, pc}
  103768:	e3a06000 	mov	r6, #0	; 0x0
  10376c:	e1a0e008 	mov	lr, r8
  103770:	e1a04005 	mov	r4, r5
  103774:	e1a0c006 	mov	ip, r6
  103778:	e4942004 	ldr	r2, [r4], #4
  10377c:	e1a03802 	mov	r3, r2, lsl #16
  103780:	e1a03823 	mov	r3, r3, lsr #16
  103784:	e021ca93 	mla	r1, r3, sl, ip
  103788:	e1a02822 	mov	r2, r2, lsr #16
  10378c:	e1a03821 	mov	r3, r1, lsr #16
  103790:	e02c3a92 	mla	ip, r2, sl, r3
  103794:	e59e0000 	ldr	r0, [lr]
  103798:	e1a01801 	mov	r1, r1, lsl #16
  10379c:	e1a02800 	mov	r2, r0, lsl #16
  1037a0:	e1a0380c 	mov	r3, ip, lsl #16
  1037a4:	e1a02822 	mov	r2, r2, lsr #16
  1037a8:	e1a01821 	mov	r1, r1, lsr #16
  1037ac:	e0612002 	rsb	r2, r1, r2
  1037b0:	e1a03823 	mov	r3, r3, lsr #16
  1037b4:	e0822006 	add	r2, r2, r6
  1037b8:	e0633820 	rsb	r3, r3, r0, lsr #16
  1037bc:	e0833842 	add	r3, r3, r2, asr #16
  1037c0:	e15b0004 	cmp	fp, r4
  1037c4:	e1ce30b2 	strh	r3, [lr, #2]
  1037c8:	e1a0c82c 	mov	ip, ip, lsr #16
  1037cc:	e0ce20b4 	strh	r2, [lr], #4
  1037d0:	e1a06843 	mov	r6, r3, asr #16
  1037d4:	2affffe7 	bcs	103778 <quorem+0x150>
  1037d8:	e59d3004 	ldr	r3, [sp, #4]
  1037dc:	e3530000 	cmp	r3, #0	; 0x0
  1037e0:	1affffa8 	bne	103688 <quorem+0x60>
  1037e4:	e59d1008 	ldr	r1, [sp, #8]
  1037e8:	e2412004 	sub	r2, r1, #4	; 0x4
  1037ec:	e1580002 	cmp	r8, r2
  1037f0:	2a00000a 	bcs	103820 <quorem+0x1f8>
  1037f4:	e5113004 	ldr	r3, [r1, #-4]
  1037f8:	e3530000 	cmp	r3, #0	; 0x0
  1037fc:	0a000003 	beq	103810 <quorem+0x1e8>
  103800:	ea000006 	b	103820 <quorem+0x1f8>
  103804:	e5923000 	ldr	r3, [r2]
  103808:	e3530000 	cmp	r3, #0	; 0x0
  10380c:	1a000003 	bne	103820 <quorem+0x1f8>
  103810:	e2422004 	sub	r2, r2, #4	; 0x4
  103814:	e1580002 	cmp	r8, r2
  103818:	e2477001 	sub	r7, r7, #1	; 0x1
  10381c:	3afffff8 	bcc	103804 <quorem+0x1dc>
  103820:	e59d2000 	ldr	r2, [sp]
  103824:	e5827010 	str	r7, [r2, #16]
  103828:	eaffff96 	b	103688 <quorem+0x60>

0010382c <_dtoa_r>:
  10382c:	e92d4ff0 	stmdb	sp!, {r4, r5, r6, r7, r8, r9, sl, fp, lr}
  103830:	e590c040 	ldr	ip, [r0, #64]
  103834:	e24dd050 	sub	sp, sp, #80	; 0x50
  103838:	e35c0000 	cmp	ip, #0	; 0x0
  10383c:	e58d0008 	str	r0, [sp, #8]
  103840:	e58d3004 	str	r3, [sp, #4]
  103844:	e1a08001 	mov	r8, r1
  103848:	e1a09002 	mov	r9, r2
  10384c:	e59d407c 	ldr	r4, [sp, #124]
  103850:	0a00000a 	beq	103880 <_dtoa_r+0x54>
  103854:	e5903044 	ldr	r3, [r0, #68]
  103858:	e58c3004 	str	r3, [ip, #4]
  10385c:	e5902044 	ldr	r2, [r0, #68]
  103860:	e3a03001 	mov	r3, #1	; 0x1
  103864:	e1a03213 	mov	r3, r3, lsl r2
  103868:	e1a0100c 	mov	r1, ip
  10386c:	e58c3008 	str	r3, [ip, #8]
  103870:	eb0008fe 	bl	105c70 <_Bfree>
  103874:	e59d2008 	ldr	r2, [sp, #8]
  103878:	e3a03000 	mov	r3, #0	; 0x0
  10387c:	e5823040 	str	r3, [r2, #64]
  103880:	e2583000 	subs	r3, r8, #0	; 0x0
  103884:	b3c38102 	biclt	r8, r3, #-2147483648	; 0x80000000
  103888:	a3a03000 	movge	r3, #0	; 0x0
  10388c:	b3a03001 	movlt	r3, #1	; 0x1
  103890:	e3c82102 	bic	r2, r8, #-2147483648	; 0x80000000
  103894:	b5843000 	strlt	r3, [r4]
  103898:	a5843000 	strge	r3, [r4]
  10389c:	e1a02a22 	mov	r2, r2, lsr #20
  1038a0:	e3a0347f 	mov	r3, #2130706432	; 0x7f000000
  1038a4:	e283360f 	add	r3, r3, #15728640	; 0xf00000
  1038a8:	e1a02a02 	mov	r2, r2, lsl #20
  1038ac:	e1520003 	cmp	r2, r3
  1038b0:	e1a04008 	mov	r4, r8
  1038b4:	0a000087 	beq	103ad8 <prog+0x3a94>
  1038b8:	e1a00008 	mov	r0, r8
  1038bc:	e1a01009 	mov	r1, r9
  1038c0:	e3a02000 	mov	r2, #0	; 0x0
  1038c4:	e3a03000 	mov	r3, #0	; 0x0
  1038c8:	e58d800c 	str	r8, [sp, #12]
  1038cc:	e58d9010 	str	r9, [sp, #16]
  1038d0:	eb0012d3 	bl	108424 <__nedf2>
  1038d4:	e3500000 	cmp	r0, #0	; 0x0
  1038d8:	1a00000b 	bne	10390c <_dtoa_r+0xe0>
  1038dc:	e59d2080 	ldr	r2, [sp, #128]
  1038e0:	e59dc078 	ldr	ip, [sp, #120]
  1038e4:	e3520000 	cmp	r2, #0	; 0x0
  1038e8:	e3a03001 	mov	r3, #1	; 0x1
  1038ec:	e58c3000 	str	r3, [ip]
  1038f0:	159de080 	ldrne	lr, [sp, #128]
  1038f4:	159f3448 	ldrne	r3, [pc, #1096]	; 103d44 <prog+0x3d00>
  1038f8:	059f0448 	ldreq	r0, [pc, #1096]	; 103d48 <prog+0x3d04>
  1038fc:	158e3000 	strne	r3, [lr]
  103900:	12430001 	subne	r0, r3, #1	; 0x1
  103904:	e28dd050 	add	sp, sp, #80	; 0x50
  103908:	e8bd8ff0 	ldmia	sp!, {r4, r5, r6, r7, r8, r9, sl, fp, pc}
  10390c:	e28d100c 	add	r1, sp, #12	; 0xc
  103910:	e8910006 	ldmia	r1, {r1, r2}
  103914:	e28d3048 	add	r3, sp, #72	; 0x48
  103918:	e28dc04c 	add	ip, sp, #76	; 0x4c
  10391c:	e59d0008 	ldr	r0, [sp, #8]
  103920:	e58dc000 	str	ip, [sp]
  103924:	eb0009c7 	bl	106048 <_d2b>
  103928:	e1a03a28 	mov	r3, r8, lsr #20
  10392c:	e1a02a83 	mov	r2, r3, lsl #21
  103930:	e1a02aa2 	mov	r2, r2, lsr #21
  103934:	e3520000 	cmp	r2, #0	; 0x0
  103938:	e58d0038 	str	r0, [sp, #56]
  10393c:	0a00007c 	beq	103b34 <prog+0x3af0>
  103940:	e28d000c 	add	r0, sp, #12	; 0xc
  103944:	e8900003 	ldmia	r0, {r0, r1}
  103948:	e3c034ff 	bic	r3, r0, #-16777216	; 0xff000000
  10394c:	e2426fff 	sub	r6, r2, #1020	; 0x3fc
  103950:	e3c3360f 	bic	r3, r3, #15728640	; 0xf00000
  103954:	e3a02000 	mov	r2, #0	; 0x0
  103958:	e38305ff 	orr	r0, r3, #1069547520	; 0x3fc00000
  10395c:	e59d704c 	ldr	r7, [sp, #76]
  103960:	e58d2034 	str	r2, [sp, #52]
  103964:	e2466003 	sub	r6, r6, #3	; 0x3
  103968:	e3800603 	orr	r0, r0, #3145728	; 0x300000
  10396c:	e3a025ff 	mov	r2, #1069547520	; 0x3fc00000
  103970:	e282270e 	add	r2, r2, #3670016	; 0x380000
  103974:	e3a03000 	mov	r3, #0	; 0x0
  103978:	eb0010db 	bl	107cec <__subdf3>
  10397c:	e28f2fea 	add	r2, pc, #936	; 0x3a8
  103980:	e892000c 	ldmia	r2, {r2, r3}
  103984:	eb001117 	bl	107de8 <__muldf3>
  103988:	e28f2fe9 	add	r2, pc, #932	; 0x3a4
  10398c:	e892000c 	ldmia	r2, {r2, r3}
  103990:	eb0010ed 	bl	107d4c <__adddf3>
  103994:	e1a04000 	mov	r4, r0
  103998:	e1a00006 	mov	r0, r6
  10399c:	e1a05001 	mov	r5, r1
  1039a0:	eb001322 	bl	108630 <__floatsidf>
  1039a4:	e28f2e39 	add	r2, pc, #912	; 0x390
  1039a8:	e892000c 	ldmia	r2, {r2, r3}
  1039ac:	eb00110d 	bl	107de8 <__muldf3>
  1039b0:	e1a02000 	mov	r2, r0
  1039b4:	e1a03001 	mov	r3, r1
  1039b8:	e1a00004 	mov	r0, r4
  1039bc:	e1a01005 	mov	r1, r5
  1039c0:	eb0010e1 	bl	107d4c <__adddf3>
  1039c4:	e1a04000 	mov	r4, r0
  1039c8:	e1a05001 	mov	r5, r1
  1039cc:	eb001355 	bl	108728 <__fixdfsi>
  1039d0:	e1a01005 	mov	r1, r5
  1039d4:	e58d0024 	str	r0, [sp, #36]
  1039d8:	e3a02000 	mov	r2, #0	; 0x0
  1039dc:	e1a00004 	mov	r0, r4
  1039e0:	e3a03000 	mov	r3, #0	; 0x0
  1039e4:	eb0012f4 	bl	1085bc <__ltdf2>
  1039e8:	e3500000 	cmp	r0, #0	; 0x0
  1039ec:	ba0002fd 	blt	1045e8 <prog+0x45a4>
  1039f0:	e59de024 	ldr	lr, [sp, #36]
  1039f4:	e35e0016 	cmp	lr, #22	; 0x16
  1039f8:	83a00001 	movhi	r0, #1	; 0x1
  1039fc:	858d0028 	strhi	r0, [sp, #40]
  103a00:	8a00000e 	bhi	103a40 <_dtoa_r+0x214>
  103a04:	e59d2024 	ldr	r2, [sp, #36]
  103a08:	e59f1344 	ldr	r1, [pc, #836]	; 103d54 <prog+0x3d10>
  103a0c:	e0811182 	add	r1, r1, r2, lsl #3
  103a10:	e891000c 	ldmia	r1, {r2, r3}
  103a14:	e28d000c 	add	r0, sp, #12	; 0xc
  103a18:	e8900003 	ldmia	r0, {r0, r1}
  103a1c:	eb0012e6 	bl	1085bc <__ltdf2>
  103a20:	e3500000 	cmp	r0, #0	; 0x0
  103a24:	b59dc024 	ldrlt	ip, [sp, #36]
  103a28:	a3a03000 	movge	r3, #0	; 0x0
  103a2c:	b24cc001 	sublt	ip, ip, #1	; 0x1
  103a30:	b3a0e000 	movlt	lr, #0	; 0x0
  103a34:	a58d3028 	strge	r3, [sp, #40]
  103a38:	b58dc024 	strlt	ip, [sp, #36]
  103a3c:	b58de028 	strlt	lr, [sp, #40]
  103a40:	e0663007 	rsb	r3, r6, r7
  103a44:	e2532001 	subs	r2, r3, #1	; 0x1
  103a48:	e59d1024 	ldr	r1, [sp, #36]
  103a4c:	42622000 	rsbmi	r2, r2, #0	; 0x0
  103a50:	53a00000 	movpl	r0, #0	; 0x0
  103a54:	51a0b002 	movpl	fp, r2
  103a58:	458d2014 	strmi	r2, [sp, #20]
  103a5c:	43a0b000 	movmi	fp, #0	; 0x0
  103a60:	558d0014 	strpl	r0, [sp, #20]
  103a64:	e3510000 	cmp	r1, #0	; 0x0
  103a68:	a3a02000 	movge	r2, #0	; 0x0
  103a6c:	a08bb001 	addge	fp, fp, r1
  103a70:	a58d1030 	strge	r1, [sp, #48]
  103a74:	a58d2018 	strge	r2, [sp, #24]
  103a78:	ba0002e6 	blt	104618 <prog+0x45d4>
  103a7c:	e59d1004 	ldr	r1, [sp, #4]
  103a80:	e3510009 	cmp	r1, #9	; 0x9
  103a84:	83a02000 	movhi	r2, #0	; 0x0
  103a88:	858d2004 	strhi	r2, [sp, #4]
  103a8c:	83a05001 	movhi	r5, #1	; 0x1
  103a90:	8a00003e 	bhi	103b90 <prog+0x3b4c>
  103a94:	e59d3004 	ldr	r3, [sp, #4]
  103a98:	e3530005 	cmp	r3, #5	; 0x5
  103a9c:	c59dc004 	ldrgt	ip, [sp, #4]
  103aa0:	c24cc004 	subgt	ip, ip, #4	; 0x4
  103aa4:	c58dc004 	strgt	ip, [sp, #4]
  103aa8:	e59de004 	ldr	lr, [sp, #4]
  103aac:	d3a00001 	movle	r0, #1	; 0x1
  103ab0:	c3a00000 	movgt	r0, #0	; 0x0
  103ab4:	e35e0005 	cmp	lr, #5	; 0x5
  103ab8:	979ff10e 	ldrls	pc, [pc, lr, lsl #2]
  103abc:	ea000279 	b	1044a8 <prog+0x4464>
  103ac0:	00103b8c 	andeqs	r3, r0, ip, lsl #23
  103ac4:	00103b8c 	andeqs	r3, r0, ip, lsl #23
  103ac8:	00104598 	muleqs	r0, r8, r5
  103acc:	0010450c 	andeqs	r4, r0, ip, lsl #10
  103ad0:	00104550 	andeqs	r4, r0, r0, asr r5
  103ad4:	0010458c 	andeqs	r4, r0, ip, lsl #11
  103ad8:	e3a03c27 	mov	r3, #9984	; 0x2700
  103adc:	e59dc078 	ldr	ip, [sp, #120]
  103ae0:	e283300f 	add	r3, r3, #15	; 0xf
  103ae4:	e3590000 	cmp	r9, #0	; 0x0
  103ae8:	e58c3000 	str	r3, [ip]
  103aec:	0a00000a 	beq	103b1c <prog+0x3ad8>
  103af0:	e59f0254 	ldr	r0, [pc, #596]	; 103d4c <prog+0x3d08>
  103af4:	e59de080 	ldr	lr, [sp, #128]
  103af8:	e35e0000 	cmp	lr, #0	; 0x0
  103afc:	0affff80 	beq	103904 <_dtoa_r+0xd8>
  103b00:	e5d03003 	ldrb	r3, [r0, #3]
  103b04:	e59d1080 	ldr	r1, [sp, #128]
  103b08:	e3530000 	cmp	r3, #0	; 0x0
  103b0c:	e2803003 	add	r3, r0, #3	; 0x3
  103b10:	12803008 	addne	r3, r0, #8	; 0x8
  103b14:	e5813000 	str	r3, [r1]
  103b18:	eaffff79 	b	103904 <_dtoa_r+0xd8>
  103b1c:	e3c834ff 	bic	r3, r8, #-16777216	; 0xff000000
  103b20:	e3c3360f 	bic	r3, r3, #15728640	; 0xf00000
  103b24:	e3530000 	cmp	r3, #0	; 0x0
  103b28:	059f0220 	ldreq	r0, [pc, #544]	; 103d50 <prog+0x3d0c>
  103b2c:	0afffff0 	beq	103af4 <prog+0x3ab0>
  103b30:	eaffffee 	b	103af0 <prog+0x3aac>
  103b34:	e28d2048 	add	r2, sp, #72	; 0x48
  103b38:	e8920084 	ldmia	r2, {r2, r7}
  103b3c:	e2873e43 	add	r3, r7, #1072	; 0x430
  103b40:	e2833002 	add	r3, r3, #2	; 0x2
  103b44:	e0835002 	add	r5, r3, r2
  103b48:	e3550020 	cmp	r5, #32	; 0x20
  103b4c:	c2453020 	subgt	r3, r5, #32	; 0x20
  103b50:	c1a03339 	movgt	r3, r9, lsr r3
  103b54:	c2652040 	rsbgt	r2, r5, #64	; 0x40
  103b58:	d2653020 	rsble	r3, r5, #32	; 0x20
  103b5c:	c1834218 	orrgt	r4, r3, r8, lsl r2
  103b60:	d1a04319 	movle	r4, r9, lsl r3
  103b64:	e1a00004 	mov	r0, r4
  103b68:	eb0012b0 	bl	108630 <__floatsidf>
  103b6c:	e3540000 	cmp	r4, #0	; 0x0
  103b70:	ba0003c4 	blt	104a88 <prog+0x4a44>
  103b74:	e2456e43 	sub	r6, r5, #1072	; 0x430
  103b78:	e3a03001 	mov	r3, #1	; 0x1
  103b7c:	e2466003 	sub	r6, r6, #3	; 0x3
  103b80:	e240061f 	sub	r0, r0, #32505856	; 0x1f00000
  103b84:	e58d3034 	str	r3, [sp, #52]
  103b88:	eaffff77 	b	10396c <_dtoa_r+0x140>
  103b8c:	e1a05000 	mov	r5, r0
  103b90:	e3a03000 	mov	r3, #0	; 0x0
  103b94:	e3e0c000 	mvn	ip, #0	; 0x0
  103b98:	e3a0e001 	mov	lr, #1	; 0x1
  103b9c:	e58d3074 	str	r3, [sp, #116]
  103ba0:	e58dc020 	str	ip, [sp, #32]
  103ba4:	e58dc01c 	str	ip, [sp, #28]
  103ba8:	e58de02c 	str	lr, [sp, #44]
  103bac:	e1a04003 	mov	r4, r3
  103bb0:	e59dc008 	ldr	ip, [sp, #8]
  103bb4:	e3a03000 	mov	r3, #0	; 0x0
  103bb8:	e58c3044 	str	r3, [ip, #68]
  103bbc:	e59d0008 	ldr	r0, [sp, #8]
  103bc0:	e5901044 	ldr	r1, [r0, #68]
  103bc4:	eb0008f9 	bl	105fb0 <_Balloc>
  103bc8:	e59dc008 	ldr	ip, [sp, #8]
  103bcc:	e1150004 	tst	r5, r4
  103bd0:	e58d0040 	str	r0, [sp, #64]
  103bd4:	e58c0040 	str	r0, [ip, #64]
  103bd8:	0a0000d8 	beq	103f40 <prog+0x3efc>
  103bdc:	e59de024 	ldr	lr, [sp, #36]
  103be0:	e35e0000 	cmp	lr, #0	; 0x0
  103be4:	da000385 	ble	104a00 <prog+0x49bc>
  103be8:	e59f3164 	ldr	r3, [pc, #356]	; 103d54 <prog+0x3d10>
  103bec:	e20e200f 	and	r2, lr, #15	; 0xf
  103bf0:	e1a0424e 	mov	r4, lr, asr #4
  103bf4:	e0833182 	add	r3, r3, r2, lsl #3
  103bf8:	e3140010 	tst	r4, #16	; 0x10
  103bfc:	e8930060 	ldmia	r3, {r5, r6}
  103c00:	03a0a002 	moveq	sl, #2	; 0x2
  103c04:	1a0001b0 	bne	1042cc <prog+0x4288>
  103c08:	e3540000 	cmp	r4, #0	; 0x0
  103c0c:	0a00000c 	beq	103c44 <prog+0x3c00>
  103c10:	e59f7140 	ldr	r7, [pc, #320]	; 103d58 <prog+0x3d14>
  103c14:	e3140001 	tst	r4, #1	; 0x1
  103c18:	e1a00005 	mov	r0, r5
  103c1c:	e1a01006 	mov	r1, r6
  103c20:	0a000004 	beq	103c38 <prog+0x3bf4>
  103c24:	e897000c 	ldmia	r7, {r2, r3}
  103c28:	eb00106e 	bl	107de8 <__muldf3>
  103c2c:	e28aa001 	add	sl, sl, #1	; 0x1
  103c30:	e1a05000 	mov	r5, r0
  103c34:	e1a06001 	mov	r6, r1
  103c38:	e1b040c4 	movs	r4, r4, asr #1
  103c3c:	e2877008 	add	r7, r7, #8	; 0x8
  103c40:	1afffff3 	bne	103c14 <prog+0x3bd0>
  103c44:	e1a00008 	mov	r0, r8
  103c48:	e1a01009 	mov	r1, r9
  103c4c:	e1a02005 	mov	r2, r5
  103c50:	e1a03006 	mov	r3, r6
  103c54:	eb001147 	bl	108178 <__divdf3>
  103c58:	e1a08000 	mov	r8, r0
  103c5c:	e1a09001 	mov	r9, r1
  103c60:	e59d1028 	ldr	r1, [sp, #40]
  103c64:	e3510000 	cmp	r1, #0	; 0x0
  103c68:	0a00003b 	beq	103d5c <prog+0x3d18>
  103c6c:	e3a025ff 	mov	r2, #1069547520	; 0x3fc00000
  103c70:	e2822603 	add	r2, r2, #3145728	; 0x300000
  103c74:	e3a03000 	mov	r3, #0	; 0x0
  103c78:	e1a00008 	mov	r0, r8
  103c7c:	e1a01009 	mov	r1, r9
  103c80:	eb00124d 	bl	1085bc <__ltdf2>
  103c84:	e59d201c 	ldr	r2, [sp, #28]
  103c88:	e3500000 	cmp	r0, #0	; 0x0
  103c8c:	e3a03000 	mov	r3, #0	; 0x0
  103c90:	b3a03001 	movlt	r3, #1	; 0x1
  103c94:	e3520000 	cmp	r2, #0	; 0x0
  103c98:	d3a03000 	movle	r3, #0	; 0x0
  103c9c:	c2033001 	andgt	r3, r3, #1	; 0x1
  103ca0:	e3530000 	cmp	r3, #0	; 0x0
  103ca4:	e1a04008 	mov	r4, r8
  103ca8:	e1a05009 	mov	r5, r9
  103cac:	0a00002a 	beq	103d5c <prog+0x3d18>
  103cb0:	e59d3020 	ldr	r3, [sp, #32]
  103cb4:	e3530000 	cmp	r3, #0	; 0x0
  103cb8:	da00009e 	ble	103f38 <prog+0x3ef4>
  103cbc:	e3a02101 	mov	r2, #1073741824	; 0x40000000
  103cc0:	e2822709 	add	r2, r2, #2359296	; 0x240000
  103cc4:	e3a03000 	mov	r3, #0	; 0x0
  103cc8:	e1a00008 	mov	r0, r8
  103ccc:	e1a01009 	mov	r1, r9
  103cd0:	eb001044 	bl	107de8 <__muldf3>
  103cd4:	e1a04000 	mov	r4, r0
  103cd8:	e28a0001 	add	r0, sl, #1	; 0x1
  103cdc:	e1a05001 	mov	r5, r1
  103ce0:	eb001252 	bl	108630 <__floatsidf>
  103ce4:	e1a02000 	mov	r2, r0
  103ce8:	e1a03001 	mov	r3, r1
  103cec:	e1a00004 	mov	r0, r4
  103cf0:	e1a01005 	mov	r1, r5
  103cf4:	eb00103b 	bl	107de8 <__muldf3>
  103cf8:	e3a02101 	mov	r2, #1073741824	; 0x40000000
  103cfc:	e2822707 	add	r2, r2, #1835008	; 0x1c0000
  103d00:	e3a03000 	mov	r3, #0	; 0x0
  103d04:	eb001010 	bl	107d4c <__adddf3>
  103d08:	e28da020 	add	sl, sp, #32	; 0x20
  103d0c:	e89a1400 	ldmia	sl, {sl, ip}
  103d10:	e24cc001 	sub	ip, ip, #1	; 0x1
  103d14:	e1a07001 	mov	r7, r1
  103d18:	e1a08004 	mov	r8, r4
  103d1c:	e1a09005 	mov	r9, r5
  103d20:	e240650d 	sub	r6, r0, #54525952	; 0x3400000
  103d24:	e58dc044 	str	ip, [sp, #68]
  103d28:	ea00001c 	b	103da0 <prog+0x3d5c>
  103d2c:	3fd287a7 	swicc	0x00d287a7
  103d30:	636f4361 	cmnvs	pc, #-2080374783	; 0x84000001
  103d34:	3fc68a28 	swicc	0x00c68a28
  103d38:	8b60c8b3 	blhi	193600c <__stack_end__+0x1732010>
  103d3c:	3fd34413 	swicc	0x00d34413
  103d40:	509f79fb 	ldrplsh	r7, [pc], fp
  103d44:	0010cf4d 	andeqs	ip, r0, sp, asr #30
  103d48:	0010cf4c 	andeqs	ip, r0, ip, asr #30
  103d4c:	0010cf88 	andeqs	ip, r0, r8, lsl #31
  103d50:	0010cf7c 	andeqs	ip, r0, ip, ror pc
  103d54:	0010c868 	andeqs	ip, r0, r8, ror #16
  103d58:	0010c930 	andeqs	ip, r0, r0, lsr r9
  103d5c:	e1a0000a 	mov	r0, sl
  103d60:	eb001232 	bl	108630 <__floatsidf>
  103d64:	e1a02008 	mov	r2, r8
  103d68:	e1a03009 	mov	r3, r9
  103d6c:	eb00101d 	bl	107de8 <__muldf3>
  103d70:	e3a02101 	mov	r2, #1073741824	; 0x40000000
  103d74:	e2822707 	add	r2, r2, #1835008	; 0x1c0000
  103d78:	e3a03000 	mov	r3, #0	; 0x0
  103d7c:	eb000ff2 	bl	107d4c <__adddf3>
  103d80:	e59de01c 	ldr	lr, [sp, #28]
  103d84:	e35e0000 	cmp	lr, #0	; 0x0
  103d88:	e1a07001 	mov	r7, r1
  103d8c:	e240650d 	sub	r6, r0, #54525952	; 0x3400000
  103d90:	0a000158 	beq	1042f8 <prog+0x42b4>
  103d94:	e59d0024 	ldr	r0, [sp, #36]
  103d98:	e59da01c 	ldr	sl, [sp, #28]
  103d9c:	e58d0044 	str	r0, [sp, #68]
  103da0:	e59d102c 	ldr	r1, [sp, #44]
  103da4:	e3510000 	cmp	r1, #0	; 0x0
  103da8:	0a0002c1 	beq	1048b4 <prog+0x4870>
  103dac:	e51f1060 	ldr	r1, [pc, #-96]	; 103d54 <prog+0x3d10>
  103db0:	e3a005ff 	mov	r0, #1069547520	; 0x3fc00000
  103db4:	e081118a 	add	r1, r1, sl, lsl #3
  103db8:	e911000c 	ldmdb	r1, {r2, r3}
  103dbc:	e2800602 	add	r0, r0, #2097152	; 0x200000
  103dc0:	e3a01000 	mov	r1, #0	; 0x0
  103dc4:	eb0010eb 	bl	108178 <__divdf3>
  103dc8:	e1a02006 	mov	r2, r6
  103dcc:	e1a03007 	mov	r3, r7
  103dd0:	eb000fc5 	bl	107cec <__subdf3>
  103dd4:	e1a06008 	mov	r6, r8
  103dd8:	e1a07009 	mov	r7, r9
  103ddc:	e1a08000 	mov	r8, r0
  103de0:	e1a09001 	mov	r9, r1
  103de4:	e1a00006 	mov	r0, r6
  103de8:	e1a01007 	mov	r1, r7
  103dec:	eb00124d 	bl	108728 <__fixdfsi>
  103df0:	e1a04000 	mov	r4, r0
  103df4:	eb00120d 	bl	108630 <__floatsidf>
  103df8:	e1a02000 	mov	r2, r0
  103dfc:	e1a03001 	mov	r3, r1
  103e00:	e1a00006 	mov	r0, r6
  103e04:	e1a01007 	mov	r1, r7
  103e08:	eb000fb7 	bl	107cec <__subdf3>
  103e0c:	e59d7040 	ldr	r7, [sp, #64]
  103e10:	e2844030 	add	r4, r4, #48	; 0x30
  103e14:	e4c74001 	strb	r4, [r7], #1
  103e18:	e1a02008 	mov	r2, r8
  103e1c:	e1a03009 	mov	r3, r9
  103e20:	e1a05000 	mov	r5, r0
  103e24:	e1a06001 	mov	r6, r1
  103e28:	eb0011e3 	bl	1085bc <__ltdf2>
  103e2c:	e3500000 	cmp	r0, #0	; 0x0
  103e30:	ba00003d 	blt	103f2c <prog+0x3ee8>
  103e34:	e3a005ff 	mov	r0, #1069547520	; 0x3fc00000
  103e38:	e1a02005 	mov	r2, r5
  103e3c:	e1a03006 	mov	r3, r6
  103e40:	e2800603 	add	r0, r0, #3145728	; 0x300000
  103e44:	e3a01000 	mov	r1, #0	; 0x0
  103e48:	eb000fa7 	bl	107cec <__subdf3>
  103e4c:	e1a02008 	mov	r2, r8
  103e50:	e1a03009 	mov	r3, r9
  103e54:	eb0011d8 	bl	1085bc <__ltdf2>
  103e58:	e3500000 	cmp	r0, #0	; 0x0
  103e5c:	ba000088 	blt	104084 <prog+0x4040>
  103e60:	e35a0001 	cmp	sl, #1	; 0x1
  103e64:	ca00000a 	bgt	103e94 <prog+0x3e50>
  103e68:	ea000032 	b	103f38 <prog+0x3ef4>
  103e6c:	eb000f9e 	bl	107cec <__subdf3>
  103e70:	e1a02008 	mov	r2, r8
  103e74:	e1a03009 	mov	r3, r9
  103e78:	eb0011cf 	bl	1085bc <__ltdf2>
  103e7c:	e59d2040 	ldr	r2, [sp, #64]
  103e80:	e3500000 	cmp	r0, #0	; 0x0
  103e84:	e08a3002 	add	r3, sl, r2
  103e88:	ba00007d 	blt	104084 <prog+0x4040>
  103e8c:	e1570003 	cmp	r7, r3
  103e90:	0a000028 	beq	103f38 <prog+0x3ef4>
  103e94:	e3a02101 	mov	r2, #1073741824	; 0x40000000
  103e98:	e1a00008 	mov	r0, r8
  103e9c:	e1a01009 	mov	r1, r9
  103ea0:	e2822709 	add	r2, r2, #2359296	; 0x240000
  103ea4:	e3a03000 	mov	r3, #0	; 0x0
  103ea8:	eb000fce 	bl	107de8 <__muldf3>
  103eac:	e3a02101 	mov	r2, #1073741824	; 0x40000000
  103eb0:	e2822709 	add	r2, r2, #2359296	; 0x240000
  103eb4:	e3a03000 	mov	r3, #0	; 0x0
  103eb8:	e1a08000 	mov	r8, r0
  103ebc:	e1a09001 	mov	r9, r1
  103ec0:	e1a00005 	mov	r0, r5
  103ec4:	e1a01006 	mov	r1, r6
  103ec8:	eb000fc6 	bl	107de8 <__muldf3>
  103ecc:	e1a06001 	mov	r6, r1
  103ed0:	e1a05000 	mov	r5, r0
  103ed4:	eb001213 	bl	108728 <__fixdfsi>
  103ed8:	e1a04000 	mov	r4, r0
  103edc:	eb0011d3 	bl	108630 <__floatsidf>
  103ee0:	e1a02000 	mov	r2, r0
  103ee4:	e1a03001 	mov	r3, r1
  103ee8:	e1a00005 	mov	r0, r5
  103eec:	e1a01006 	mov	r1, r6
  103ef0:	eb000f7d 	bl	107cec <__subdf3>
  103ef4:	e2844030 	add	r4, r4, #48	; 0x30
  103ef8:	e1a02008 	mov	r2, r8
  103efc:	e1a03009 	mov	r3, r9
  103f00:	e4c74001 	strb	r4, [r7], #1
  103f04:	e1a06001 	mov	r6, r1
  103f08:	e1a05000 	mov	r5, r0
  103f0c:	eb0011aa 	bl	1085bc <__ltdf2>
  103f10:	e3500000 	cmp	r0, #0	; 0x0
  103f14:	e3a005ff 	mov	r0, #1069547520	; 0x3fc00000
  103f18:	e1a02005 	mov	r2, r5
  103f1c:	e1a03006 	mov	r3, r6
  103f20:	e2800603 	add	r0, r0, #3145728	; 0x300000
  103f24:	e3a01000 	mov	r1, #0	; 0x0
  103f28:	aaffffcf 	bge	103e6c <prog+0x3e28>
  103f2c:	e59d3044 	ldr	r3, [sp, #68]
  103f30:	e58d3024 	str	r3, [sp, #36]
  103f34:	ea00011a 	b	1043a4 <prog+0x4360>
  103f38:	e28d800c 	add	r8, sp, #12	; 0xc
  103f3c:	e8980300 	ldmia	r8, {r8, r9}
  103f40:	e59d2048 	ldr	r2, [sp, #72]
  103f44:	e59de024 	ldr	lr, [sp, #36]
  103f48:	e1e03002 	mvn	r3, r2
  103f4c:	e1a03fa3 	mov	r3, r3, lsr #31
  103f50:	e35e000e 	cmp	lr, #14	; 0xe
  103f54:	c3a03000 	movgt	r3, #0	; 0x0
  103f58:	e3530000 	cmp	r3, #0	; 0x0
  103f5c:	0a00005d 	beq	1040d8 <prog+0x4094>
  103f60:	e59d001c 	ldr	r0, [sp, #28]
  103f64:	e59d1074 	ldr	r1, [sp, #116]
  103f68:	e51f321c 	ldr	r3, [pc, #-540]	; 103d54 <prog+0x3d10>
  103f6c:	e3500000 	cmp	r0, #0	; 0x0
  103f70:	c3a02000 	movgt	r2, #0	; 0x0
  103f74:	d3a02001 	movle	r2, #1	; 0x1
  103f78:	e083318e 	add	r3, r3, lr, lsl #3
  103f7c:	e0121fa1 	ands	r1, r2, r1, lsr #31
  103f80:	e8930c00 	ldmia	r3, {sl, fp}
  103f84:	1a000137 	bne	104468 <prog+0x4424>
  103f88:	e59d3040 	ldr	r3, [sp, #64]
  103f8c:	e59d201c 	ldr	r2, [sp, #28]
  103f90:	e1a04008 	mov	r4, r8
  103f94:	e1a05009 	mov	r5, r9
  103f98:	e0828003 	add	r8, r2, r3
  103f9c:	e1a07003 	mov	r7, r3
  103fa0:	ea000007 	b	103fc4 <prog+0x3f80>
  103fa4:	eb000f8f 	bl	107de8 <__muldf3>
  103fa8:	e3a02000 	mov	r2, #0	; 0x0
  103fac:	e3a03000 	mov	r3, #0	; 0x0
  103fb0:	e1a04000 	mov	r4, r0
  103fb4:	e1a05001 	mov	r5, r1
  103fb8:	eb001119 	bl	108424 <__nedf2>
  103fbc:	e3500000 	cmp	r0, #0	; 0x0
  103fc0:	0a0000f7 	beq	1043a4 <prog+0x4360>
  103fc4:	e1a0200a 	mov	r2, sl
  103fc8:	e1a0300b 	mov	r3, fp
  103fcc:	e1a00004 	mov	r0, r4
  103fd0:	e1a01005 	mov	r1, r5
  103fd4:	eb001067 	bl	108178 <__divdf3>
  103fd8:	eb0011d2 	bl	108728 <__fixdfsi>
  103fdc:	e1a06000 	mov	r6, r0
  103fe0:	eb001192 	bl	108630 <__floatsidf>
  103fe4:	e1a02000 	mov	r2, r0
  103fe8:	e1a03001 	mov	r3, r1
  103fec:	e1a0000a 	mov	r0, sl
  103ff0:	e1a0100b 	mov	r1, fp
  103ff4:	eb000f7b 	bl	107de8 <__muldf3>
  103ff8:	e1a02000 	mov	r2, r0
  103ffc:	e1a03001 	mov	r3, r1
  104000:	e1a00004 	mov	r0, r4
  104004:	e1a01005 	mov	r1, r5
  104008:	eb000f37 	bl	107cec <__subdf3>
  10400c:	e286c030 	add	ip, r6, #48	; 0x30
  104010:	e4c7c001 	strb	ip, [r7], #1
  104014:	e3a02101 	mov	r2, #1073741824	; 0x40000000
  104018:	e1580007 	cmp	r8, r7
  10401c:	e2822709 	add	r2, r2, #2359296	; 0x240000
  104020:	e3a03000 	mov	r3, #0	; 0x0
  104024:	1affffde 	bne	103fa4 <prog+0x3f60>
  104028:	e1a02000 	mov	r2, r0
  10402c:	e1a03001 	mov	r3, r1
  104030:	eb000f45 	bl	107d4c <__adddf3>
  104034:	e1a04000 	mov	r4, r0
  104038:	e1a05001 	mov	r5, r1
  10403c:	e1a0000a 	mov	r0, sl
  104040:	e1a0100b 	mov	r1, fp
  104044:	e1a02004 	mov	r2, r4
  104048:	e1a03005 	mov	r3, r5
  10404c:	eb00115a 	bl	1085bc <__ltdf2>
  104050:	e3500000 	cmp	r0, #0	; 0x0
  104054:	ba000008 	blt	10407c <prog+0x4038>
  104058:	e1a0000a 	mov	r0, sl
  10405c:	e1a0100b 	mov	r1, fp
  104060:	e1a02004 	mov	r2, r4
  104064:	e1a03005 	mov	r3, r5
  104068:	eb0010cb 	bl	10839c <__eqdf2>
  10406c:	e3500000 	cmp	r0, #0	; 0x0
  104070:	1a0000cb 	bne	1043a4 <prog+0x4360>
  104074:	e3160001 	tst	r6, #1	; 0x1
  104078:	0a0000c9 	beq	1043a4 <prog+0x4360>
  10407c:	e59d0024 	ldr	r0, [sp, #36]
  104080:	e58d0044 	str	r0, [sp, #68]
  104084:	e1a02007 	mov	r2, r7
  104088:	e59d3040 	ldr	r3, [sp, #64]
  10408c:	e0671003 	rsb	r1, r7, r3
  104090:	e5723001 	ldrb	r3, [r2, #-1]!
  104094:	e3530039 	cmp	r3, #57	; 0x39
  104098:	1a000008 	bne	1040c0 <prog+0x407c>
  10409c:	e59dc040 	ldr	ip, [sp, #64]
  1040a0:	e15c0002 	cmp	ip, r2
  1040a4:	1afffff7 	bne	104088 <prog+0x4044>
  1040a8:	e3a03030 	mov	r3, #48	; 0x30
  1040ac:	e5cc3000 	strb	r3, [ip]
  1040b0:	e59de044 	ldr	lr, [sp, #68]
  1040b4:	e28ee001 	add	lr, lr, #1	; 0x1
  1040b8:	e7d13007 	ldrb	r3, [r1, r7]
  1040bc:	e58de044 	str	lr, [sp, #68]
  1040c0:	e2833001 	add	r3, r3, #1	; 0x1
  1040c4:	e4c23001 	strb	r3, [r2], #1
  1040c8:	e59dc044 	ldr	ip, [sp, #68]
  1040cc:	e1a07002 	mov	r7, r2
  1040d0:	e58dc024 	str	ip, [sp, #36]
  1040d4:	ea0000b2 	b	1043a4 <prog+0x4360>
  1040d8:	e59de02c 	ldr	lr, [sp, #44]
  1040dc:	e35e0000 	cmp	lr, #0	; 0x0
  1040e0:	1a0000bf 	bne	1043e4 <prog+0x43a0>
  1040e4:	e59d7014 	ldr	r7, [sp, #20]
  1040e8:	e59d5018 	ldr	r5, [sp, #24]
  1040ec:	e1a0a00e 	mov	sl, lr
  1040f0:	e3570000 	cmp	r7, #0	; 0x0
  1040f4:	c35b0000 	cmpgt	fp, #0	; 0x0
  1040f8:	da000007 	ble	10411c <prog+0x40d8>
  1040fc:	e59de014 	ldr	lr, [sp, #20]
  104100:	e157000b 	cmp	r7, fp
  104104:	b1a03007 	movlt	r3, r7
  104108:	a1a0300b 	movge	r3, fp
  10410c:	e063e00e 	rsb	lr, r3, lr
  104110:	e58de014 	str	lr, [sp, #20]
  104114:	e063b00b 	rsb	fp, r3, fp
  104118:	e0637007 	rsb	r7, r3, r7
  10411c:	e59d0018 	ldr	r0, [sp, #24]
  104120:	e3500000 	cmp	r0, #0	; 0x0
  104124:	da000015 	ble	104180 <prog+0x413c>
  104128:	e59d102c 	ldr	r1, [sp, #44]
  10412c:	e3510000 	cmp	r1, #0	; 0x0
  104130:	0a00027b 	beq	104b24 <prog+0x4ae0>
  104134:	e3550000 	cmp	r5, #0	; 0x0
  104138:	da00000d 	ble	104174 <prog+0x4130>
  10413c:	e1a0100a 	mov	r1, sl
  104140:	e1a02005 	mov	r2, r5
  104144:	e59d0008 	ldr	r0, [sp, #8]
  104148:	eb00093f 	bl	10664c <_pow5mult>
  10414c:	e1a0a000 	mov	sl, r0
  104150:	e1a0100a 	mov	r1, sl
  104154:	e59d2038 	ldr	r2, [sp, #56]
  104158:	e59d0008 	ldr	r0, [sp, #8]
  10415c:	eb000890 	bl	1063a4 <_multiply>
  104160:	e59d1038 	ldr	r1, [sp, #56]
  104164:	e1a04000 	mov	r4, r0
  104168:	e59d0008 	ldr	r0, [sp, #8]
  10416c:	eb0006bf 	bl	105c70 <_Bfree>
  104170:	e58d4038 	str	r4, [sp, #56]
  104174:	e59d3018 	ldr	r3, [sp, #24]
  104178:	e0532005 	subs	r2, r3, r5
  10417c:	1a000270 	bne	104b44 <prog+0x4b00>
  104180:	e59d0008 	ldr	r0, [sp, #8]
  104184:	e3a01001 	mov	r1, #1	; 0x1
  104188:	eb0008f5 	bl	106564 <_i2b>
  10418c:	e59dc030 	ldr	ip, [sp, #48]
  104190:	e35c0000 	cmp	ip, #0	; 0x0
  104194:	e1a06000 	mov	r6, r0
  104198:	da000004 	ble	1041b0 <prog+0x416c>
  10419c:	e1a01000 	mov	r1, r0
  1041a0:	e1a0200c 	mov	r2, ip
  1041a4:	e59d0008 	ldr	r0, [sp, #8]
  1041a8:	eb000927 	bl	10664c <_pow5mult>
  1041ac:	e1a06000 	mov	r6, r0
  1041b0:	e59de004 	ldr	lr, [sp, #4]
  1041b4:	e35e0001 	cmp	lr, #1	; 0x1
  1041b8:	da0000f9 	ble	1045a4 <prog+0x4560>
  1041bc:	e3a04000 	mov	r4, #0	; 0x0
  1041c0:	e59d1030 	ldr	r1, [sp, #48]
  1041c4:	e3510000 	cmp	r1, #0	; 0x0
  1041c8:	03a03001 	moveq	r3, #1	; 0x1
  1041cc:	1a000232 	bne	104a9c <prog+0x4a58>
  1041d0:	e08b3003 	add	r3, fp, r3
  1041d4:	e213301f 	ands	r3, r3, #31	; 0x1f
  1041d8:	03a0301c 	moveq	r3, #28	; 0x1c
  1041dc:	0a000119 	beq	104648 <prog+0x4604>
  1041e0:	e2633020 	rsb	r3, r3, #32	; 0x20
  1041e4:	e3530004 	cmp	r3, #4	; 0x4
  1041e8:	da000113 	ble	10463c <prog+0x45f8>
  1041ec:	e59d2014 	ldr	r2, [sp, #20]
  1041f0:	e2433004 	sub	r3, r3, #4	; 0x4
  1041f4:	e0822003 	add	r2, r2, r3
  1041f8:	e58d2014 	str	r2, [sp, #20]
  1041fc:	e08bb003 	add	fp, fp, r3
  104200:	e0877003 	add	r7, r7, r3
  104204:	e59de014 	ldr	lr, [sp, #20]
  104208:	e35e0000 	cmp	lr, #0	; 0x0
  10420c:	da000004 	ble	104224 <prog+0x41e0>
  104210:	e59d1038 	ldr	r1, [sp, #56]
  104214:	e1a0200e 	mov	r2, lr
  104218:	e59d0008 	ldr	r0, [sp, #8]
  10421c:	eb000823 	bl	1062b0 <_lshift>
  104220:	e58d0038 	str	r0, [sp, #56]
  104224:	e35b0000 	cmp	fp, #0	; 0x0
  104228:	da000004 	ble	104240 <prog+0x41fc>
  10422c:	e1a01006 	mov	r1, r6
  104230:	e1a0200b 	mov	r2, fp
  104234:	e59d0008 	ldr	r0, [sp, #8]
  104238:	eb00081c 	bl	1062b0 <_lshift>
  10423c:	e1a06000 	mov	r6, r0
  104240:	e59d0028 	ldr	r0, [sp, #40]
  104244:	e3500000 	cmp	r0, #0	; 0x0
  104248:	1a000219 	bne	104ab4 <prog+0x4a70>
  10424c:	e59de01c 	ldr	lr, [sp, #28]
  104250:	e59d0004 	ldr	r0, [sp, #4]
  104254:	e35e0000 	cmp	lr, #0	; 0x0
  104258:	c3a03000 	movgt	r3, #0	; 0x0
  10425c:	d3a03001 	movle	r3, #1	; 0x1
  104260:	e3500002 	cmp	r0, #2	; 0x2
  104264:	d3a03000 	movle	r3, #0	; 0x0
  104268:	e3530000 	cmp	r3, #0	; 0x0
  10426c:	0a0000fb 	beq	104660 <prog+0x461c>
  104270:	e35e0000 	cmp	lr, #0	; 0x0
  104274:	ba000037 	blt	104358 <prog+0x4314>
  104278:	e1a01006 	mov	r1, r6
  10427c:	e3a02005 	mov	r2, #5	; 0x5
  104280:	e3a03000 	mov	r3, #0	; 0x0
  104284:	e59d0008 	ldr	r0, [sp, #8]
  104288:	eb0008bd 	bl	106584 <_multadd>
  10428c:	e1a06000 	mov	r6, r0
  104290:	e1a01006 	mov	r1, r6
  104294:	e59d0038 	ldr	r0, [sp, #56]
  104298:	eb0006b6 	bl	105d78 <__mcmp>
  10429c:	e3500000 	cmp	r0, #0	; 0x0
  1042a0:	da00002c 	ble	104358 <prog+0x4314>
  1042a4:	e59d7040 	ldr	r7, [sp, #64]
  1042a8:	e3a03031 	mov	r3, #49	; 0x31
  1042ac:	e4c73001 	strb	r3, [r7], #1
  1042b0:	e59d3024 	ldr	r3, [sp, #36]
  1042b4:	e3a0c000 	mov	ip, #0	; 0x0
  1042b8:	e2833001 	add	r3, r3, #1	; 0x1
  1042bc:	e1a0b00a 	mov	fp, sl
  1042c0:	e58d3024 	str	r3, [sp, #36]
  1042c4:	e58dc03c 	str	ip, [sp, #60]
  1042c8:	ea000029 	b	104374 <prog+0x4330>
  1042cc:	e51f157c 	ldr	r1, [pc, #-1404]	; 103d58 <prog+0x3d14>
  1042d0:	e2812020 	add	r2, r1, #32	; 0x20
  1042d4:	e892000c 	ldmia	r2, {r2, r3}
  1042d8:	e28d000c 	add	r0, sp, #12	; 0xc
  1042dc:	e8900003 	ldmia	r0, {r0, r1}
  1042e0:	eb000fa4 	bl	108178 <__divdf3>
  1042e4:	e204400f 	and	r4, r4, #15	; 0xf
  1042e8:	e1a08000 	mov	r8, r0
  1042ec:	e1a09001 	mov	r9, r1
  1042f0:	e3a0a003 	mov	sl, #3	; 0x3
  1042f4:	eafffe43 	b	103c08 <prog+0x3bc4>
  1042f8:	e3a02101 	mov	r2, #1073741824	; 0x40000000
  1042fc:	e1a00008 	mov	r0, r8
  104300:	e1a01009 	mov	r1, r9
  104304:	e2822705 	add	r2, r2, #1310720	; 0x140000
  104308:	e3a03000 	mov	r3, #0	; 0x0
  10430c:	eb000e76 	bl	107cec <__subdf3>
  104310:	e1a02006 	mov	r2, r6
  104314:	e1a03007 	mov	r3, r7
  104318:	e1a08000 	mov	r8, r0
  10431c:	e1a09001 	mov	r9, r1
  104320:	eb001061 	bl	1084ac <__gtdf2>
  104324:	e3500000 	cmp	r0, #0	; 0x0
  104328:	e1a04006 	mov	r4, r6
  10432c:	e1a05007 	mov	r5, r7
  104330:	ca000059 	bgt	10449c <prog+0x4458>
  104334:	e2862102 	add	r2, r6, #-2147483648	; 0x80000000
  104338:	e1a03007 	mov	r3, r7
  10433c:	e1a00008 	mov	r0, r8
  104340:	e1a01009 	mov	r1, r9
  104344:	eb00109c 	bl	1085bc <__ltdf2>
  104348:	e3500000 	cmp	r0, #0	; 0x0
  10434c:	aafffef9 	bge	103f38 <prog+0x3ef4>
  104350:	e3a06000 	mov	r6, #0	; 0x0
  104354:	e1a0a006 	mov	sl, r6
  104358:	e59d1074 	ldr	r1, [sp, #116]
  10435c:	e3a02000 	mov	r2, #0	; 0x0
  104360:	e1e01001 	mvn	r1, r1
  104364:	e58d1024 	str	r1, [sp, #36]
  104368:	e59d7040 	ldr	r7, [sp, #64]
  10436c:	e58d203c 	str	r2, [sp, #60]
  104370:	e1a0b00a 	mov	fp, sl
  104374:	e1a01006 	mov	r1, r6
  104378:	e59d0008 	ldr	r0, [sp, #8]
  10437c:	eb00063b 	bl	105c70 <_Bfree>
  104380:	e35b0000 	cmp	fp, #0	; 0x0
  104384:	0a000006 	beq	1043a4 <prog+0x4360>
  104388:	e59d203c 	ldr	r2, [sp, #60]
  10438c:	e3520000 	cmp	r2, #0	; 0x0
  104390:	1152000b 	cmpne	r2, fp
  104394:	1a000142 	bne	1048a4 <prog+0x4860>
  104398:	e1a0100b 	mov	r1, fp
  10439c:	e59d0008 	ldr	r0, [sp, #8]
  1043a0:	eb000632 	bl	105c70 <_Bfree>
  1043a4:	e59d1038 	ldr	r1, [sp, #56]
  1043a8:	e59d0008 	ldr	r0, [sp, #8]
  1043ac:	eb00062f 	bl	105c70 <_Bfree>
  1043b0:	e3a03000 	mov	r3, #0	; 0x0
  1043b4:	e59dc024 	ldr	ip, [sp, #36]
  1043b8:	e59de080 	ldr	lr, [sp, #128]
  1043bc:	e5c73000 	strb	r3, [r7]
  1043c0:	e59d0078 	ldr	r0, [sp, #120]
  1043c4:	e35e0000 	cmp	lr, #0	; 0x0
  1043c8:	e28c2001 	add	r2, ip, #1	; 0x1
  1043cc:	e5802000 	str	r2, [r0]
  1043d0:	159d1080 	ldrne	r1, [sp, #128]
  1043d4:	059d0040 	ldreq	r0, [sp, #64]
  1043d8:	159d0040 	ldrne	r0, [sp, #64]
  1043dc:	15817000 	strne	r7, [r1]
  1043e0:	eafffd47 	b	103904 <_dtoa_r+0xd8>
  1043e4:	e59d0004 	ldr	r0, [sp, #4]
  1043e8:	e3500001 	cmp	r0, #1	; 0x1
  1043ec:	da0001d9 	ble	104b58 <prog+0x4b14>
  1043f0:	e59d301c 	ldr	r3, [sp, #28]
  1043f4:	e59dc018 	ldr	ip, [sp, #24]
  1043f8:	e2432001 	sub	r2, r3, #1	; 0x1
  1043fc:	e15c0002 	cmp	ip, r2
  104400:	b59de018 	ldrlt	lr, [sp, #24]
  104404:	b59d0030 	ldrlt	r0, [sp, #48]
  104408:	b06e3002 	rsblt	r3, lr, r2
  10440c:	e59d101c 	ldr	r1, [sp, #28]
  104410:	b08ee003 	addlt	lr, lr, r3
  104414:	b0800003 	addlt	r0, r0, r3
  104418:	a062500c 	rsbge	r5, r2, ip
  10441c:	b58de018 	strlt	lr, [sp, #24]
  104420:	b58d0030 	strlt	r0, [sp, #48]
  104424:	b3a05000 	movlt	r5, #0	; 0x0
  104428:	e3510000 	cmp	r1, #0	; 0x0
  10442c:	b59d301c 	ldrlt	r3, [sp, #28]
  104430:	b59d2014 	ldrlt	r2, [sp, #20]
  104434:	a59d7014 	ldrge	r7, [sp, #20]
  104438:	b0637002 	rsblt	r7, r3, r2
  10443c:	a1a03001 	movge	r3, r1
  104440:	b3a03000 	movlt	r3, #0	; 0x0
  104444:	e59dc014 	ldr	ip, [sp, #20]
  104448:	e59d0008 	ldr	r0, [sp, #8]
  10444c:	e08cc003 	add	ip, ip, r3
  104450:	e3a01001 	mov	r1, #1	; 0x1
  104454:	e08bb003 	add	fp, fp, r3
  104458:	e58dc014 	str	ip, [sp, #20]
  10445c:	eb000840 	bl	106564 <_i2b>
  104460:	e1a0a000 	mov	sl, r0
  104464:	eaffff21 	b	1040f0 <prog+0x40ac>
  104468:	e3500000 	cmp	r0, #0	; 0x0
  10446c:	baffffb7 	blt	104350 <prog+0x430c>
  104470:	e3a02101 	mov	r2, #1073741824	; 0x40000000
  104474:	e2822705 	add	r2, r2, #1310720	; 0x140000
  104478:	e3a03000 	mov	r3, #0	; 0x0
  10447c:	e1a0000a 	mov	r0, sl
  104480:	e1a0100b 	mov	r1, fp
  104484:	eb000e57 	bl	107de8 <__muldf3>
  104488:	e1a02008 	mov	r2, r8
  10448c:	e1a03009 	mov	r3, r9
  104490:	eb001027 	bl	108534 <__gedf2>
  104494:	e3500000 	cmp	r0, #0	; 0x0
  104498:	aaffffac 	bge	104350 <prog+0x430c>
  10449c:	e3a06000 	mov	r6, #0	; 0x0
  1044a0:	e1a0a006 	mov	sl, r6
  1044a4:	eaffff7e 	b	1042a4 <prog+0x4260>
  1044a8:	e3e02000 	mvn	r2, #0	; 0x0
  1044ac:	e3a03001 	mov	r3, #1	; 0x1
  1044b0:	e58d2020 	str	r2, [sp, #32]
  1044b4:	e58d201c 	str	r2, [sp, #28]
  1044b8:	e58d302c 	str	r3, [sp, #44]
  1044bc:	e59dc008 	ldr	ip, [sp, #8]
  1044c0:	e3560017 	cmp	r6, #23	; 0x17
  1044c4:	e3a03000 	mov	r3, #0	; 0x0
  1044c8:	e58c3044 	str	r3, [ip, #68]
  1044cc:	81a01003 	movhi	r1, r3
  1044d0:	83a02004 	movhi	r2, #4	; 0x4
  1044d4:	9a0001e0 	bls	104c5c <prog+0x4c18>
  1044d8:	e1a02082 	mov	r2, r2, lsl #1
  1044dc:	e2823014 	add	r3, r2, #20	; 0x14
  1044e0:	e1560003 	cmp	r6, r3
  1044e4:	e2811001 	add	r1, r1, #1	; 0x1
  1044e8:	2afffffa 	bcs	1044d8 <prog+0x4494>
  1044ec:	e59d301c 	ldr	r3, [sp, #28]
  1044f0:	e59d2008 	ldr	r2, [sp, #8]
  1044f4:	e353000e 	cmp	r3, #14	; 0xe
  1044f8:	83a04000 	movhi	r4, #0	; 0x0
  1044fc:	93a04001 	movls	r4, #1	; 0x1
  104500:	e1a05000 	mov	r5, r0
  104504:	e5821044 	str	r1, [r2, #68]
  104508:	eafffdab 	b	103bbc <prog+0x3b78>
  10450c:	e3a03000 	mov	r3, #0	; 0x0
  104510:	e58d302c 	str	r3, [sp, #44]
  104514:	e59dc074 	ldr	ip, [sp, #116]
  104518:	e59de024 	ldr	lr, [sp, #36]
  10451c:	e28c3001 	add	r3, ip, #1	; 0x1
  104520:	e08e6003 	add	r6, lr, r3
  104524:	e3560000 	cmp	r6, #0	; 0x0
  104528:	e2461001 	sub	r1, r6, #1	; 0x1
  10452c:	e58d1020 	str	r1, [sp, #32]
  104530:	c58d601c 	strgt	r6, [sp, #28]
  104534:	caffffe0 	bgt	1044bc <prog+0x4478>
  104538:	e356000e 	cmp	r6, #14	; 0xe
  10453c:	83a04000 	movhi	r4, #0	; 0x0
  104540:	93a04001 	movls	r4, #1	; 0x1
  104544:	e1a05000 	mov	r5, r0
  104548:	e58d601c 	str	r6, [sp, #28]
  10454c:	eafffd97 	b	103bb0 <prog+0x3b6c>
  104550:	e3a02001 	mov	r2, #1	; 0x1
  104554:	e58d202c 	str	r2, [sp, #44]
  104558:	e59d2074 	ldr	r2, [sp, #116]
  10455c:	e3520000 	cmp	r2, #0	; 0x0
  104560:	c58d2020 	strgt	r2, [sp, #32]
  104564:	c1a06002 	movgt	r6, r2
  104568:	c58d201c 	strgt	r2, [sp, #28]
  10456c:	caffffd2 	bgt	1044bc <prog+0x4478>
  104570:	e3a02001 	mov	r2, #1	; 0x1
  104574:	e1a04002 	mov	r4, r2
  104578:	e1a05000 	mov	r5, r0
  10457c:	e58d201c 	str	r2, [sp, #28]
  104580:	e58d2074 	str	r2, [sp, #116]
  104584:	e58d2020 	str	r2, [sp, #32]
  104588:	eafffd88 	b	103bb0 <prog+0x3b6c>
  10458c:	e3a01001 	mov	r1, #1	; 0x1
  104590:	e58d102c 	str	r1, [sp, #44]
  104594:	eaffffde 	b	104514 <prog+0x44d0>
  104598:	e3a01000 	mov	r1, #0	; 0x0
  10459c:	e58d102c 	str	r1, [sp, #44]
  1045a0:	eaffffec 	b	104558 <prog+0x4514>
  1045a4:	e3590000 	cmp	r9, #0	; 0x0
  1045a8:	1affff03 	bne	1041bc <prog+0x4178>
  1045ac:	e3c834ff 	bic	r3, r8, #-16777216	; 0xff000000
  1045b0:	e3c3360f 	bic	r3, r3, #15728640	; 0xf00000
  1045b4:	e3530000 	cmp	r3, #0	; 0x0
  1045b8:	1afffeff 	bne	1041bc <prog+0x4178>
  1045bc:	e3c83102 	bic	r3, r8, #-2147483648	; 0x80000000
  1045c0:	e1a03a23 	mov	r3, r3, lsr #20
  1045c4:	e1a03a03 	mov	r3, r3, lsl #20
  1045c8:	e3530000 	cmp	r3, #0	; 0x0
  1045cc:	0afffefa 	beq	1041bc <prog+0x4178>
  1045d0:	e59d0014 	ldr	r0, [sp, #20]
  1045d4:	e28bb001 	add	fp, fp, #1	; 0x1
  1045d8:	e2800001 	add	r0, r0, #1	; 0x1
  1045dc:	e3a04001 	mov	r4, #1	; 0x1
  1045e0:	e58d0014 	str	r0, [sp, #20]
  1045e4:	eafffef5 	b	1041c0 <prog+0x417c>
  1045e8:	e59d0024 	ldr	r0, [sp, #36]
  1045ec:	eb00100f 	bl	108630 <__floatsidf>
  1045f0:	e1a02000 	mov	r2, r0
  1045f4:	e1a03001 	mov	r3, r1
  1045f8:	e1a00004 	mov	r0, r4
  1045fc:	e1a01005 	mov	r1, r5
  104600:	eb000f87 	bl	108424 <__nedf2>
  104604:	e3500000 	cmp	r0, #0	; 0x0
  104608:	159dc024 	ldrne	ip, [sp, #36]
  10460c:	124cc001 	subne	ip, ip, #1	; 0x1
  104610:	158dc024 	strne	ip, [sp, #36]
  104614:	eafffcf5 	b	1039f0 <_dtoa_r+0x1c4>
  104618:	e59d3014 	ldr	r3, [sp, #20]
  10461c:	e59dc024 	ldr	ip, [sp, #36]
  104620:	e3a00000 	mov	r0, #0	; 0x0
  104624:	e06c3003 	rsb	r3, ip, r3
  104628:	e26ce000 	rsb	lr, ip, #0	; 0x0
  10462c:	e58d3014 	str	r3, [sp, #20]
  104630:	e58de018 	str	lr, [sp, #24]
  104634:	e58d0030 	str	r0, [sp, #48]
  104638:	eafffd0f 	b	103a7c <_dtoa_r+0x250>
  10463c:	e3530003 	cmp	r3, #3	; 0x3
  104640:	cafffeef 	bgt	104204 <prog+0x41c0>
  104644:	e283301c 	add	r3, r3, #28	; 0x1c
  104648:	e59dc014 	ldr	ip, [sp, #20]
  10464c:	e08bb003 	add	fp, fp, r3
  104650:	e08cc003 	add	ip, ip, r3
  104654:	e0877003 	add	r7, r7, r3
  104658:	e58dc014 	str	ip, [sp, #20]
  10465c:	eafffee8 	b	104204 <prog+0x41c0>
  104660:	e59de02c 	ldr	lr, [sp, #44]
  104664:	e35e0000 	cmp	lr, #0	; 0x0
  104668:	03a04000 	moveq	r4, #0	; 0x0
  10466c:	0a00004c 	beq	1047a4 <prog+0x4760>
  104670:	e3570000 	cmp	r7, #0	; 0x0
  104674:	da000004 	ble	10468c <prog+0x4648>
  104678:	e1a0100a 	mov	r1, sl
  10467c:	e1a02007 	mov	r2, r7
  104680:	e59d0008 	ldr	r0, [sp, #8]
  104684:	eb000709 	bl	1062b0 <_lshift>
  104688:	e1a0a000 	mov	sl, r0
  10468c:	e3540000 	cmp	r4, #0	; 0x0
  104690:	01a0b00a 	moveq	fp, sl
  104694:	1a00014f 	bne	104bd8 <prog+0x4b94>
  104698:	e58da03c 	str	sl, [sp, #60]
  10469c:	e59d5040 	ldr	r5, [sp, #64]
  1046a0:	e2097001 	and	r7, r9, #1	; 0x1
  1046a4:	e1a01006 	mov	r1, r6
  1046a8:	e59d0038 	ldr	r0, [sp, #56]
  1046ac:	ebfffbdd 	bl	103628 <quorem>
  1046b0:	e59d103c 	ldr	r1, [sp, #60]
  1046b4:	e2809030 	add	r9, r0, #48	; 0x30
  1046b8:	e59d0038 	ldr	r0, [sp, #56]
  1046bc:	eb0005ad 	bl	105d78 <__mcmp>
  1046c0:	e1a01006 	mov	r1, r6
  1046c4:	e1a08000 	mov	r8, r0
  1046c8:	e1a0200b 	mov	r2, fp
  1046cc:	e59d0008 	ldr	r0, [sp, #8]
  1046d0:	eb0006a9 	bl	10617c <__mdiff>
  1046d4:	e590300c 	ldr	r3, [r0, #12]
  1046d8:	e3530000 	cmp	r3, #0	; 0x0
  1046dc:	e1a04000 	mov	r4, r0
  1046e0:	13a0a001 	movne	sl, #1	; 0x1
  1046e4:	0a000061 	beq	104870 <prog+0x482c>
  1046e8:	e1a01004 	mov	r1, r4
  1046ec:	e59d0008 	ldr	r0, [sp, #8]
  1046f0:	eb00055e 	bl	105c70 <_Bfree>
  1046f4:	e59d2004 	ldr	r2, [sp, #4]
  1046f8:	e19a2002 	orrs	r2, sl, r2
  1046fc:	1a000001 	bne	104708 <prog+0x46c4>
  104700:	e3570000 	cmp	r7, #0	; 0x0
  104704:	0a00014b 	beq	104c38 <prog+0x4bf4>
  104708:	e3580000 	cmp	r8, #0	; 0x0
  10470c:	ba000120 	blt	104b94 <prog+0x4b50>
  104710:	e59d3004 	ldr	r3, [sp, #4]
  104714:	e1983003 	orrs	r3, r8, r3
  104718:	1a000001 	bne	104724 <prog+0x46e0>
  10471c:	e3570000 	cmp	r7, #0	; 0x0
  104720:	0a00011b 	beq	104b94 <prog+0x4b50>
  104724:	e35a0000 	cmp	sl, #0	; 0x0
  104728:	ca00013a 	bgt	104c18 <prog+0x4bd4>
  10472c:	e4c59001 	strb	r9, [r5], #1
  104730:	e59dc01c 	ldr	ip, [sp, #28]
  104734:	e59de040 	ldr	lr, [sp, #64]
  104738:	e08c300e 	add	r3, ip, lr
  10473c:	e1550003 	cmp	r5, r3
  104740:	0a00002a 	beq	1047f0 <prog+0x47ac>
  104744:	e59d1038 	ldr	r1, [sp, #56]
  104748:	e59d0008 	ldr	r0, [sp, #8]
  10474c:	e3a0200a 	mov	r2, #10	; 0xa
  104750:	e3a03000 	mov	r3, #0	; 0x0
  104754:	eb00078a 	bl	106584 <_multadd>
  104758:	e58d0038 	str	r0, [sp, #56]
  10475c:	e59d003c 	ldr	r0, [sp, #60]
  104760:	e150000b 	cmp	r0, fp
  104764:	0a000046 	beq	104884 <prog+0x4840>
  104768:	e59d103c 	ldr	r1, [sp, #60]
  10476c:	e3a0200a 	mov	r2, #10	; 0xa
  104770:	e3a03000 	mov	r3, #0	; 0x0
  104774:	e59d0008 	ldr	r0, [sp, #8]
  104778:	eb000781 	bl	106584 <_multadd>
  10477c:	e1a0100b 	mov	r1, fp
  104780:	e58d003c 	str	r0, [sp, #60]
  104784:	e3a0200a 	mov	r2, #10	; 0xa
  104788:	e59d0008 	ldr	r0, [sp, #8]
  10478c:	e3a03000 	mov	r3, #0	; 0x0
  104790:	eb00077b 	bl	106584 <_multadd>
  104794:	e1a0b000 	mov	fp, r0
  104798:	eaffffc1 	b	1046a4 <prog+0x4660>
  10479c:	eb000778 	bl	106584 <_multadd>
  1047a0:	e58d0038 	str	r0, [sp, #56]
  1047a4:	e1a01006 	mov	r1, r6
  1047a8:	e59d0038 	ldr	r0, [sp, #56]
  1047ac:	ebfffb9d 	bl	103628 <quorem>
  1047b0:	e59dc040 	ldr	ip, [sp, #64]
  1047b4:	e2809030 	add	r9, r0, #48	; 0x30
  1047b8:	e59d1038 	ldr	r1, [sp, #56]
  1047bc:	e59d0008 	ldr	r0, [sp, #8]
  1047c0:	e7c4900c 	strb	r9, [r4, ip]
  1047c4:	e59de01c 	ldr	lr, [sp, #28]
  1047c8:	e2844001 	add	r4, r4, #1	; 0x1
  1047cc:	e15e0004 	cmp	lr, r4
  1047d0:	e3a0200a 	mov	r2, #10	; 0xa
  1047d4:	e3a03000 	mov	r3, #0	; 0x0
  1047d8:	caffffef 	bgt	10479c <prog+0x4758>
  1047dc:	e59d0040 	ldr	r0, [sp, #64]
  1047e0:	e3a01000 	mov	r1, #0	; 0x0
  1047e4:	e58d103c 	str	r1, [sp, #60]
  1047e8:	e0805004 	add	r5, r0, r4
  1047ec:	e1a0b00a 	mov	fp, sl
  1047f0:	e59d1038 	ldr	r1, [sp, #56]
  1047f4:	e3a02001 	mov	r2, #1	; 0x1
  1047f8:	e59d0008 	ldr	r0, [sp, #8]
  1047fc:	eb0006ab 	bl	1062b0 <_lshift>
  104800:	e1a01006 	mov	r1, r6
  104804:	e58d0038 	str	r0, [sp, #56]
  104808:	eb00055a 	bl	105d78 <__mcmp>
  10480c:	e3500000 	cmp	r0, #0	; 0x0
  104810:	da00000d 	ble	10484c <prog+0x4808>
  104814:	e1a02005 	mov	r2, r5
  104818:	e5723001 	ldrb	r3, [r2, #-1]!
  10481c:	e3530039 	cmp	r3, #57	; 0x39
  104820:	1a0000d7 	bne	104b84 <prog+0x4b40>
  104824:	e59d0040 	ldr	r0, [sp, #64]
  104828:	e1500002 	cmp	r0, r2
  10482c:	1afffff9 	bne	104818 <prog+0x47d4>
  104830:	e1a07000 	mov	r7, r0
  104834:	e3a03031 	mov	r3, #49	; 0x31
  104838:	e4c73001 	strb	r3, [r7], #1
  10483c:	e59d1024 	ldr	r1, [sp, #36]
  104840:	e2811001 	add	r1, r1, #1	; 0x1
  104844:	e58d1024 	str	r1, [sp, #36]
  104848:	eafffec9 	b	104374 <prog+0x4330>
  10484c:	1a000001 	bne	104858 <prog+0x4814>
  104850:	e3190001 	tst	r9, #1	; 0x1
  104854:	1affffee 	bne	104814 <prog+0x47d0>
  104858:	e1a02005 	mov	r2, r5
  10485c:	e5723001 	ldrb	r3, [r2, #-1]!
  104860:	e3530030 	cmp	r3, #48	; 0x30
  104864:	0afffffc 	beq	10485c <prog+0x4818>
  104868:	e2827001 	add	r7, r2, #1	; 0x1
  10486c:	eafffec0 	b	104374 <prog+0x4330>
  104870:	e59d0038 	ldr	r0, [sp, #56]
  104874:	e1a01004 	mov	r1, r4
  104878:	eb00053e 	bl	105d78 <__mcmp>
  10487c:	e1a0a000 	mov	sl, r0
  104880:	eaffff98 	b	1046e8 <prog+0x46a4>
  104884:	e1a0100b 	mov	r1, fp
  104888:	e59d0008 	ldr	r0, [sp, #8]
  10488c:	e3a0200a 	mov	r2, #10	; 0xa
  104890:	e3a03000 	mov	r3, #0	; 0x0
  104894:	eb00073a 	bl	106584 <_multadd>
  104898:	e1a0b000 	mov	fp, r0
  10489c:	e58d003c 	str	r0, [sp, #60]
  1048a0:	eaffff7f 	b	1046a4 <prog+0x4660>
  1048a4:	e1a01002 	mov	r1, r2
  1048a8:	e59d0008 	ldr	r0, [sp, #8]
  1048ac:	eb0004ef 	bl	105c70 <_Bfree>
  1048b0:	eafffeb8 	b	104398 <prog+0x4354>
  1048b4:	e51fcb68 	ldr	ip, [pc, #-2920]	; 103d54 <prog+0x3d10>
  1048b8:	e08cc18a 	add	ip, ip, sl, lsl #3
  1048bc:	e91c000c 	ldmdb	ip, {r2, r3}
  1048c0:	e1a00006 	mov	r0, r6
  1048c4:	e1a01007 	mov	r1, r7
  1048c8:	eb000d46 	bl	107de8 <__muldf3>
  1048cc:	e1a05008 	mov	r5, r8
  1048d0:	e1a06009 	mov	r6, r9
  1048d4:	e1a08000 	mov	r8, r0
  1048d8:	e1a09001 	mov	r9, r1
  1048dc:	e1a00005 	mov	r0, r5
  1048e0:	e1a01006 	mov	r1, r6
  1048e4:	eb000f8f 	bl	108728 <__fixdfsi>
  1048e8:	e1a04000 	mov	r4, r0
  1048ec:	eb000f4f 	bl	108630 <__floatsidf>
  1048f0:	e1a02000 	mov	r2, r0
  1048f4:	e1a03001 	mov	r3, r1
  1048f8:	e1a00005 	mov	r0, r5
  1048fc:	e1a01006 	mov	r1, r6
  104900:	eb000cf9 	bl	107cec <__subdf3>
  104904:	e59d7040 	ldr	r7, [sp, #64]
  104908:	e2844030 	add	r4, r4, #48	; 0x30
  10490c:	e35a0001 	cmp	sl, #1	; 0x1
  104910:	e4c74001 	strb	r4, [r7], #1
  104914:	e1a05000 	mov	r5, r0
  104918:	e1a06001 	mov	r6, r1
  10491c:	13a07001 	movne	r7, #1	; 0x1
  104920:	0a000018 	beq	104988 <prog+0x4944>
  104924:	e3a02101 	mov	r2, #1073741824	; 0x40000000
  104928:	e2822709 	add	r2, r2, #2359296	; 0x240000
  10492c:	e3a03000 	mov	r3, #0	; 0x0
  104930:	e1a00005 	mov	r0, r5
  104934:	e1a01006 	mov	r1, r6
  104938:	eb000d2a 	bl	107de8 <__muldf3>
  10493c:	e1a06001 	mov	r6, r1
  104940:	e1a05000 	mov	r5, r0
  104944:	eb000f77 	bl	108728 <__fixdfsi>
  104948:	e1a04000 	mov	r4, r0
  10494c:	eb000f37 	bl	108630 <__floatsidf>
  104950:	e1a02000 	mov	r2, r0
  104954:	e1a03001 	mov	r3, r1
  104958:	e1a00005 	mov	r0, r5
  10495c:	e1a01006 	mov	r1, r6
  104960:	eb000ce1 	bl	107cec <__subdf3>
  104964:	e59dc040 	ldr	ip, [sp, #64]
  104968:	e2844030 	add	r4, r4, #48	; 0x30
  10496c:	e7c7400c 	strb	r4, [r7, ip]
  104970:	e2877001 	add	r7, r7, #1	; 0x1
  104974:	e157000a 	cmp	r7, sl
  104978:	e1a05000 	mov	r5, r0
  10497c:	e1a06001 	mov	r6, r1
  104980:	1affffe7 	bne	104924 <prog+0x48e0>
  104984:	e08c7007 	add	r7, ip, r7
  104988:	e3a025ff 	mov	r2, #1069547520	; 0x3fc00000
  10498c:	e2822602 	add	r2, r2, #2097152	; 0x200000
  104990:	e3a03000 	mov	r3, #0	; 0x0
  104994:	e1a00008 	mov	r0, r8
  104998:	e1a01009 	mov	r1, r9
  10499c:	eb000cea 	bl	107d4c <__adddf3>
  1049a0:	e1a02005 	mov	r2, r5
  1049a4:	e1a03006 	mov	r3, r6
  1049a8:	eb000f03 	bl	1085bc <__ltdf2>
  1049ac:	e3500000 	cmp	r0, #0	; 0x0
  1049b0:	bafffdb3 	blt	104084 <prog+0x4040>
  1049b4:	e3a005ff 	mov	r0, #1069547520	; 0x3fc00000
  1049b8:	e1a02008 	mov	r2, r8
  1049bc:	e1a03009 	mov	r3, r9
  1049c0:	e2800602 	add	r0, r0, #2097152	; 0x200000
  1049c4:	e3a01000 	mov	r1, #0	; 0x0
  1049c8:	eb000cc7 	bl	107cec <__subdf3>
  1049cc:	e1a02005 	mov	r2, r5
  1049d0:	e1a03006 	mov	r3, r6
  1049d4:	eb000eb4 	bl	1084ac <__gtdf2>
  1049d8:	e3500000 	cmp	r0, #0	; 0x0
  1049dc:	dafffd55 	ble	103f38 <prog+0x3ef4>
  1049e0:	e1a02007 	mov	r2, r7
  1049e4:	e5723001 	ldrb	r3, [r2, #-1]!
  1049e8:	e3530030 	cmp	r3, #48	; 0x30
  1049ec:	0afffffc 	beq	1049e4 <prog+0x49a0>
  1049f0:	e59d3044 	ldr	r3, [sp, #68]
  1049f4:	e2827001 	add	r7, r2, #1	; 0x1
  1049f8:	e58d3024 	str	r3, [sp, #36]
  1049fc:	eafffe68 	b	1043a4 <prog+0x4360>
  104a00:	e59d0024 	ldr	r0, [sp, #36]
  104a04:	e2605000 	rsb	r5, r0, #0	; 0x0
  104a08:	e3550000 	cmp	r5, #0	; 0x0
  104a0c:	0a00004a 	beq	104b3c <prog+0x4af8>
  104a10:	e51f1cc4 	ldr	r1, [pc, #-3268]	; 103d54 <prog+0x3d10>
  104a14:	e205300f 	and	r3, r5, #15	; 0xf
  104a18:	e0811183 	add	r1, r1, r3, lsl #3
  104a1c:	e891000c 	ldmia	r1, {r2, r3}
  104a20:	e28d000c 	add	r0, sp, #12	; 0xc
  104a24:	e8900003 	ldmia	r0, {r0, r1}
  104a28:	eb000cee 	bl	107de8 <__muldf3>
  104a2c:	e1b05245 	movs	r5, r5, asr #4
  104a30:	e1a03000 	mov	r3, r0
  104a34:	e1a04001 	mov	r4, r1
  104a38:	e1a08000 	mov	r8, r0
  104a3c:	e1a09001 	mov	r9, r1
  104a40:	0a00003d 	beq	104b3c <prog+0x4af8>
  104a44:	e51f6cf4 	ldr	r6, [pc, #-3316]	; 103d58 <prog+0x3d14>
  104a48:	e3a0a002 	mov	sl, #2	; 0x2
  104a4c:	e3150001 	tst	r5, #1	; 0x1
  104a50:	e1a00003 	mov	r0, r3
  104a54:	e1a01004 	mov	r1, r4
  104a58:	0a000004 	beq	104a70 <prog+0x4a2c>
  104a5c:	e896000c 	ldmia	r6, {r2, r3}
  104a60:	eb000ce0 	bl	107de8 <__muldf3>
  104a64:	e28aa001 	add	sl, sl, #1	; 0x1
  104a68:	e1a03000 	mov	r3, r0
  104a6c:	e1a04001 	mov	r4, r1
  104a70:	e1b050c5 	movs	r5, r5, asr #1
  104a74:	e2866008 	add	r6, r6, #8	; 0x8
  104a78:	1afffff3 	bne	104a4c <prog+0x4a08>
  104a7c:	e1a08003 	mov	r8, r3
  104a80:	e1a09004 	mov	r9, r4
  104a84:	eafffc75 	b	103c60 <prog+0x3c1c>
  104a88:	e3a02441 	mov	r2, #1090519040	; 0x41000000
  104a8c:	e282260f 	add	r2, r2, #15728640	; 0xf00000
  104a90:	e3a03000 	mov	r3, #0	; 0x0
  104a94:	eb000cac 	bl	107d4c <__adddf3>
  104a98:	eafffc35 	b	103b74 <prog+0x3b30>
  104a9c:	e5963010 	ldr	r3, [r6, #16]
  104aa0:	e0863103 	add	r3, r6, r3, lsl #2
  104aa4:	e5930010 	ldr	r0, [r3, #16]
  104aa8:	eb000477 	bl	105c8c <_hi0bits>
  104aac:	e2603020 	rsb	r3, r0, #32	; 0x20
  104ab0:	eafffdc6 	b	1041d0 <prog+0x418c>
  104ab4:	e59d0038 	ldr	r0, [sp, #56]
  104ab8:	e1a01006 	mov	r1, r6
  104abc:	eb0004ad 	bl	105d78 <__mcmp>
  104ac0:	e3500000 	cmp	r0, #0	; 0x0
  104ac4:	aafffde0 	bge	10424c <prog+0x4208>
  104ac8:	e3a03000 	mov	r3, #0	; 0x0
  104acc:	e59d1038 	ldr	r1, [sp, #56]
  104ad0:	e3a0200a 	mov	r2, #10	; 0xa
  104ad4:	e59d0008 	ldr	r0, [sp, #8]
  104ad8:	eb0006a9 	bl	106584 <_multadd>
  104adc:	e59d102c 	ldr	r1, [sp, #44]
  104ae0:	e59d2024 	ldr	r2, [sp, #36]
  104ae4:	e3510000 	cmp	r1, #0	; 0x0
  104ae8:	059d3020 	ldreq	r3, [sp, #32]
  104aec:	e2422001 	sub	r2, r2, #1	; 0x1
  104af0:	e58d0038 	str	r0, [sp, #56]
  104af4:	e58d2024 	str	r2, [sp, #36]
  104af8:	058d301c 	streq	r3, [sp, #28]
  104afc:	0afffdd2 	beq	10424c <prog+0x4208>
  104b00:	e1a0100a 	mov	r1, sl
  104b04:	e59d0008 	ldr	r0, [sp, #8]
  104b08:	e3a0200a 	mov	r2, #10	; 0xa
  104b0c:	e3a03000 	mov	r3, #0	; 0x0
  104b10:	eb00069b 	bl	106584 <_multadd>
  104b14:	e59dc020 	ldr	ip, [sp, #32]
  104b18:	e1a0a000 	mov	sl, r0
  104b1c:	e58dc01c 	str	ip, [sp, #28]
  104b20:	eafffdc9 	b	10424c <prog+0x4208>
  104b24:	e59d1038 	ldr	r1, [sp, #56]
  104b28:	e59d2018 	ldr	r2, [sp, #24]
  104b2c:	e59d0008 	ldr	r0, [sp, #8]
  104b30:	eb0006c5 	bl	10664c <_pow5mult>
  104b34:	e58d0038 	str	r0, [sp, #56]
  104b38:	eafffd90 	b	104180 <prog+0x413c>
  104b3c:	e3a0a002 	mov	sl, #2	; 0x2
  104b40:	eafffc46 	b	103c60 <prog+0x3c1c>
  104b44:	e59d1038 	ldr	r1, [sp, #56]
  104b48:	e59d0008 	ldr	r0, [sp, #8]
  104b4c:	eb0006be 	bl	10664c <_pow5mult>
  104b50:	e58d0038 	str	r0, [sp, #56]
  104b54:	eafffd89 	b	104180 <prog+0x413c>
  104b58:	e59d1034 	ldr	r1, [sp, #52]
  104b5c:	e3510000 	cmp	r1, #0	; 0x0
  104b60:	059d304c 	ldreq	r3, [sp, #76]
  104b64:	12823e43 	addne	r3, r2, #1072	; 0x430
  104b68:	159d7014 	ldrne	r7, [sp, #20]
  104b6c:	159d5018 	ldrne	r5, [sp, #24]
  104b70:	059d7014 	ldreq	r7, [sp, #20]
  104b74:	059d5018 	ldreq	r5, [sp, #24]
  104b78:	12833003 	addne	r3, r3, #3	; 0x3
  104b7c:	02633036 	rsbeq	r3, r3, #54	; 0x36
  104b80:	eafffe2f 	b	104444 <prog+0x4400>
  104b84:	e2833001 	add	r3, r3, #1	; 0x1
  104b88:	e4c23001 	strb	r3, [r2], #1
  104b8c:	e1a07002 	mov	r7, r2
  104b90:	eafffdf7 	b	104374 <prog+0x4330>
  104b94:	e35a0000 	cmp	sl, #0	; 0x0
  104b98:	da00000b 	ble	104bcc <prog+0x4b88>
  104b9c:	e59d1038 	ldr	r1, [sp, #56]
  104ba0:	e3a02001 	mov	r2, #1	; 0x1
  104ba4:	e59d0008 	ldr	r0, [sp, #8]
  104ba8:	eb0005c0 	bl	1062b0 <_lshift>
  104bac:	e1a01006 	mov	r1, r6
  104bb0:	e58d0038 	str	r0, [sp, #56]
  104bb4:	eb00046f 	bl	105d78 <__mcmp>
  104bb8:	e3500000 	cmp	r0, #0	; 0x0
  104bbc:	da000022 	ble	104c4c <prog+0x4c08>
  104bc0:	e2899001 	add	r9, r9, #1	; 0x1
  104bc4:	e359003a 	cmp	r9, #58	; 0x3a
  104bc8:	0a000017 	beq	104c2c <prog+0x4be8>
  104bcc:	e4c59001 	strb	r9, [r5], #1
  104bd0:	e1a07005 	mov	r7, r5
  104bd4:	eafffde6 	b	104374 <prog+0x4330>
  104bd8:	e59a1004 	ldr	r1, [sl, #4]
  104bdc:	e59d0008 	ldr	r0, [sp, #8]
  104be0:	eb0004f2 	bl	105fb0 <_Balloc>
  104be4:	e59a2010 	ldr	r2, [sl, #16]
  104be8:	e1a02102 	mov	r2, r2, lsl #2
  104bec:	e1a04000 	mov	r4, r0
  104bf0:	e2822008 	add	r2, r2, #8	; 0x8
  104bf4:	e28a100c 	add	r1, sl, #12	; 0xc
  104bf8:	e280000c 	add	r0, r0, #12	; 0xc
  104bfc:	ebffeff2 	bl	100bcc <memcpy>
  104c00:	e59d0008 	ldr	r0, [sp, #8]
  104c04:	e1a01004 	mov	r1, r4
  104c08:	e3a02001 	mov	r2, #1	; 0x1
  104c0c:	eb0005a7 	bl	1062b0 <_lshift>
  104c10:	e1a0b000 	mov	fp, r0
  104c14:	eafffe9f 	b	104698 <prog+0x4654>
  104c18:	e3590039 	cmp	r9, #57	; 0x39
  104c1c:	12893001 	addne	r3, r9, #1	; 0x1
  104c20:	14c53001 	strneb	r3, [r5], #1
  104c24:	11a07005 	movne	r7, r5
  104c28:	1afffdd1 	bne	104374 <prog+0x4330>
  104c2c:	e3a03039 	mov	r3, #57	; 0x39
  104c30:	e4c53001 	strb	r3, [r5], #1
  104c34:	eafffef6 	b	104814 <prog+0x47d0>
  104c38:	e3590039 	cmp	r9, #57	; 0x39
  104c3c:	0afffffa 	beq	104c2c <prog+0x4be8>
  104c40:	e3580000 	cmp	r8, #0	; 0x0
  104c44:	c2899001 	addgt	r9, r9, #1	; 0x1
  104c48:	eaffffdf 	b	104bcc <prog+0x4b88>
  104c4c:	1affffde 	bne	104bcc <prog+0x4b88>
  104c50:	e3190001 	tst	r9, #1	; 0x1
  104c54:	0affffdc 	beq	104bcc <prog+0x4b88>
  104c58:	eaffffd8 	b	104bc0 <prog+0x4b7c>
  104c5c:	e59de01c 	ldr	lr, [sp, #28]
  104c60:	e1a05000 	mov	r5, r0
  104c64:	e35e000e 	cmp	lr, #14	; 0xe
  104c68:	83a04000 	movhi	r4, #0	; 0x0
  104c6c:	93a04001 	movls	r4, #1	; 0x1
  104c70:	eafffbd1 	b	103bbc <prog+0x3b78>

00104c74 <fflush>:
  104c74:	e92d4070 	stmdb	sp!, {r4, r5, r6, lr}
  104c78:	e2506000 	subs	r6, r0, #0	; 0x0
  104c7c:	0a00002c 	beq	104d34 <fflush+0xc0>
  104c80:	e59f30c0 	ldr	r3, [pc, #192]	; 104d48 <prog+0x4d04>
  104c84:	e5930000 	ldr	r0, [r3]
  104c88:	e3500000 	cmp	r0, #0	; 0x0
  104c8c:	0a000002 	beq	104c9c <fflush+0x28>
  104c90:	e5903038 	ldr	r3, [r0, #56]
  104c94:	e3530000 	cmp	r3, #0	; 0x0
  104c98:	0a000023 	beq	104d2c <fflush+0xb8>
  104c9c:	e1d610fc 	ldrsh	r1, [r6, #12]
  104ca0:	e3110008 	tst	r1, #8	; 0x8
  104ca4:	0a00001c 	beq	104d1c <fflush+0xa8>
  104ca8:	e5965010 	ldr	r5, [r6, #16]
  104cac:	e3550000 	cmp	r5, #0	; 0x0
  104cb0:	0a000019 	beq	104d1c <fflush+0xa8>
  104cb4:	e5963000 	ldr	r3, [r6]
  104cb8:	e3110003 	tst	r1, #3	; 0x3
  104cbc:	e0654003 	rsb	r4, r5, r3
  104cc0:	e5865000 	str	r5, [r6]
  104cc4:	13a03000 	movne	r3, #0	; 0x0
  104cc8:	0a000015 	beq	104d24 <fflush+0xb0>
  104ccc:	e3540000 	cmp	r4, #0	; 0x0
  104cd0:	e5863008 	str	r3, [r6, #8]
  104cd4:	ca000002 	bgt	104ce4 <fflush+0x70>
  104cd8:	ea00000f 	b	104d1c <fflush+0xa8>
  104cdc:	e3540000 	cmp	r4, #0	; 0x0
  104ce0:	da00000d 	ble	104d1c <fflush+0xa8>
  104ce4:	e1a01005 	mov	r1, r5
  104ce8:	e1a02004 	mov	r2, r4
  104cec:	e596001c 	ldr	r0, [r6, #28]
  104cf0:	e1a0e00f 	mov	lr, pc
  104cf4:	e596f024 	ldr	pc, [r6, #36]
  104cf8:	e3500000 	cmp	r0, #0	; 0x0
  104cfc:	e0855000 	add	r5, r5, r0
  104d00:	e0604004 	rsb	r4, r0, r4
  104d04:	cafffff4 	bgt	104cdc <fflush+0x68>
  104d08:	e1d630bc 	ldrh	r3, [r6, #12]
  104d0c:	e3e00000 	mvn	r0, #0	; 0x0
  104d10:	e3833040 	orr	r3, r3, #64	; 0x40
  104d14:	e1c630bc 	strh	r3, [r6, #12]
  104d18:	e8bd8070 	ldmia	sp!, {r4, r5, r6, pc}
  104d1c:	e3a00000 	mov	r0, #0	; 0x0
  104d20:	e8bd8070 	ldmia	sp!, {r4, r5, r6, pc}
  104d24:	e5963014 	ldr	r3, [r6, #20]
  104d28:	eaffffe7 	b	104ccc <fflush+0x58>
  104d2c:	eb000023 	bl	104dc0 <__sinit>
  104d30:	eaffffd9 	b	104c9c <fflush+0x28>
  104d34:	e59f3010 	ldr	r3, [pc, #16]	; 104d4c <prog+0x4d08>
  104d38:	e59f1010 	ldr	r1, [pc, #16]	; 104d50 <prog+0x4d0c>
  104d3c:	e5930000 	ldr	r0, [r3]
  104d40:	e8bd4070 	ldmia	sp!, {r4, r5, r6, lr}
  104d44:	ea0002a8 	b	1057ec <_fwalk>
  104d48:	00200410 	eoreq	r0, r0, r0, lsl r4
  104d4c:	0010c830 	andeqs	ip, r0, r0, lsr r8
  104d50:	00104c74 	andeqs	r4, r0, r4, ror ip

00104d54 <std>:
  104d54:	e59f3044 	ldr	r3, [pc, #68]	; 104da0 <prog+0x4d5c>
  104d58:	e580302c 	str	r3, [r0, #44]
  104d5c:	e59f3040 	ldr	r3, [pc, #64]	; 104da4 <prog+0x4d60>
  104d60:	e1c020be 	strh	r2, [r0, #14]
  104d64:	e5803020 	str	r3, [r0, #32]
  104d68:	e59f2038 	ldr	r2, [pc, #56]	; 104da8 <prog+0x4d64>
  104d6c:	e59f3038 	ldr	r3, [pc, #56]	; 104dac <prog+0x4d68>
  104d70:	e3a0c000 	mov	ip, #0	; 0x0
  104d74:	e1c010bc 	strh	r1, [r0, #12]
  104d78:	e580c018 	str	ip, [r0, #24]
  104d7c:	e5802024 	str	r2, [r0, #36]
  104d80:	e5803028 	str	r3, [r0, #40]
  104d84:	e580c000 	str	ip, [r0]
  104d88:	e580c004 	str	ip, [r0, #4]
  104d8c:	e580c008 	str	ip, [r0, #8]
  104d90:	e580c010 	str	ip, [r0, #16]
  104d94:	e580c014 	str	ip, [r0, #20]
  104d98:	e580001c 	str	r0, [r0, #28]
  104d9c:	e12fff1e 	bx	lr
  104da0:	00106ec4 	andeqs	r6, r0, r4, asr #29
  104da4:	00106f80 	andeqs	r6, r0, r0, lsl #31
  104da8:	00106f20 	andeqs	r6, r0, r0, lsr #30
  104dac:	00106ed8 	ldreqsb	r6, [r0], -r8

00104db0 <__sfp_lock_acquire>:
  104db0:	e12fff1e 	bx	lr

00104db4 <__sfp_lock_release>:
  104db4:	e12fff1e 	bx	lr

00104db8 <__sinit_lock_acquire>:
  104db8:	e12fff1e 	bx	lr

00104dbc <__sinit_lock_release>:
  104dbc:	e12fff1e 	bx	lr

00104dc0 <__sinit>:
  104dc0:	e92d4070 	stmdb	sp!, {r4, r5, r6, lr}
  104dc4:	e590e038 	ldr	lr, [r0, #56]
  104dc8:	e25e2000 	subs	r2, lr, #0	; 0x0
  104dcc:	e3a06001 	mov	r6, #1	; 0x1
  104dd0:	e3a01004 	mov	r1, #4	; 0x4
  104dd4:	e1a04000 	mov	r4, r0
  104dd8:	e2805fbb 	add	r5, r0, #748	; 0x2ec
  104ddc:	e1a03000 	mov	r3, r0
  104de0:	18bd8070 	ldmneia	sp!, {r4, r5, r6, pc}
  104de4:	e59f0048 	ldr	r0, [pc, #72]	; 104e34 <prog+0x4df0>
  104de8:	e3a0c003 	mov	ip, #3	; 0x3
  104dec:	e584003c 	str	r0, [r4, #60]
  104df0:	e584c2e4 	str	ip, [r4, #740]
  104df4:	e584e2e0 	str	lr, [r4, #736]
  104df8:	e5940004 	ldr	r0, [r4, #4]
  104dfc:	e58452e8 	str	r5, [r4, #744]
  104e00:	e5846038 	str	r6, [r4, #56]
  104e04:	ebffffd2 	bl	104d54 <std>
  104e08:	e1a02006 	mov	r2, r6
  104e0c:	e5940008 	ldr	r0, [r4, #8]
  104e10:	e1a03004 	mov	r3, r4
  104e14:	e3a01009 	mov	r1, #9	; 0x9
  104e18:	ebffffcd 	bl	104d54 <std>
  104e1c:	e594000c 	ldr	r0, [r4, #12]
  104e20:	e1a03004 	mov	r3, r4
  104e24:	e3a0100a 	mov	r1, #10	; 0xa
  104e28:	e3a02002 	mov	r2, #2	; 0x2
  104e2c:	e8bd4070 	ldmia	sp!, {r4, r5, r6, lr}
  104e30:	eaffffc7 	b	104d54 <std>
  104e34:	00104e78 	andeqs	r4, r0, r8, ror lr

00104e38 <__fp_lock>:
  104e38:	e3a00000 	mov	r0, #0	; 0x0
  104e3c:	e12fff1e 	bx	lr

00104e40 <__fp_unlock>:
  104e40:	e3a00000 	mov	r0, #0	; 0x0
  104e44:	e12fff1e 	bx	lr

00104e48 <__fp_unlock_all>:
  104e48:	e59f3008 	ldr	r3, [pc, #8]	; 104e58 <prog+0x4e14>
  104e4c:	e59f1008 	ldr	r1, [pc, #8]	; 104e5c <prog+0x4e18>
  104e50:	e5930000 	ldr	r0, [r3]
  104e54:	ea000264 	b	1057ec <_fwalk>
  104e58:	00200410 	eoreq	r0, r0, r0, lsl r4
  104e5c:	00104e40 	andeqs	r4, r0, r0, asr #28

00104e60 <__fp_lock_all>:
  104e60:	e59f3008 	ldr	r3, [pc, #8]	; 104e70 <prog+0x4e2c>
  104e64:	e59f1008 	ldr	r1, [pc, #8]	; 104e74 <prog+0x4e30>
  104e68:	e5930000 	ldr	r0, [r3]
  104e6c:	ea00025e 	b	1057ec <_fwalk>
  104e70:	00200410 	eoreq	r0, r0, r0, lsl r4
  104e74:	00104e38 	andeqs	r4, r0, r8, lsr lr

00104e78 <_cleanup_r>:
  104e78:	e59f1000 	ldr	r1, [pc, #0]	; 104e80 <prog+0x4e3c>
  104e7c:	ea00025a 	b	1057ec <_fwalk>
  104e80:	00107960 	andeqs	r7, r0, r0, ror #18

00104e84 <_cleanup>:
  104e84:	e59f3004 	ldr	r3, [pc, #4]	; 104e90 <prog+0x4e4c>
  104e88:	e5930000 	ldr	r0, [r3]
  104e8c:	eafffff9 	b	104e78 <_cleanup_r>
  104e90:	0010c830 	andeqs	ip, r0, r0, lsr r8

00104e94 <__sfmoreglue>:
  104e94:	e92d4070 	stmdb	sp!, {r4, r5, r6, lr}
  104e98:	e0814081 	add	r4, r1, r1, lsl #1
  104e9c:	e0614184 	rsb	r4, r1, r4, lsl #3
  104ea0:	e1a04104 	mov	r4, r4, lsl #2
  104ea4:	e1a06001 	mov	r6, r1
  104ea8:	e284100c 	add	r1, r4, #12	; 0xc
  104eac:	ebffed6a 	bl	10045c <_malloc_r>
  104eb0:	e250c000 	subs	ip, r0, #0	; 0x0
  104eb4:	e3a0e000 	mov	lr, #0	; 0x0
  104eb8:	e28c300c 	add	r3, ip, #12	; 0xc
  104ebc:	e1a0500c 	mov	r5, ip
  104ec0:	e1a00003 	mov	r0, r3
  104ec4:	e1a0100e 	mov	r1, lr
  104ec8:	e1a02004 	mov	r2, r4
  104ecc:	158c6004 	strne	r6, [ip, #4]
  104ed0:	158ce000 	strne	lr, [ip]
  104ed4:	158c3008 	strne	r3, [ip, #8]
  104ed8:	1bffef63 	blne	100c6c <memset>
  104edc:	e1a00005 	mov	r0, r5
  104ee0:	e8bd8070 	ldmia	sp!, {r4, r5, r6, pc}

00104ee4 <__sfp>:
  104ee4:	e59f30e0 	ldr	r3, [pc, #224]	; 104fcc <prog+0x4f88>
  104ee8:	e92d4030 	stmdb	sp!, {r4, r5, lr}
  104eec:	e5934000 	ldr	r4, [r3]
  104ef0:	e5942038 	ldr	r2, [r4, #56]
  104ef4:	e3520000 	cmp	r2, #0	; 0x0
  104ef8:	e1a05000 	mov	r5, r0
  104efc:	0a000025 	beq	104f98 <__sfp+0xb4>
  104f00:	e2844e2e 	add	r4, r4, #736	; 0x2e0
  104f04:	e5943004 	ldr	r3, [r4, #4]
  104f08:	e2531001 	subs	r1, r3, #1	; 0x1
  104f0c:	e5940008 	ldr	r0, [r4, #8]
  104f10:	4a00000b 	bmi	104f44 <__sfp+0x60>
  104f14:	e1d030fc 	ldrsh	r3, [r0, #12]
  104f18:	e3530000 	cmp	r3, #0	; 0x0
  104f1c:	0a00000d 	beq	104f58 <__sfp+0x74>
  104f20:	e3a02000 	mov	r2, #0	; 0x0
  104f24:	ea000002 	b	104f34 <__sfp+0x50>
  104f28:	e1d030fc 	ldrsh	r3, [r0, #12]
  104f2c:	e3530000 	cmp	r3, #0	; 0x0
  104f30:	0a000008 	beq	104f58 <__sfp+0x74>
  104f34:	e1520001 	cmp	r2, r1
  104f38:	e280005c 	add	r0, r0, #92	; 0x5c
  104f3c:	e2822001 	add	r2, r2, #1	; 0x1
  104f40:	1afffff8 	bne	104f28 <__sfp+0x44>
  104f44:	e5940000 	ldr	r0, [r4]
  104f48:	e3500000 	cmp	r0, #0	; 0x0
  104f4c:	0a000014 	beq	104fa4 <__sfp+0xc0>
  104f50:	e1a04000 	mov	r4, r0
  104f54:	eaffffea 	b	104f04 <__sfp+0x20>
  104f58:	e3a03000 	mov	r3, #0	; 0x0
  104f5c:	e5803048 	str	r3, [r0, #72]
  104f60:	e5803000 	str	r3, [r0]
  104f64:	e5803008 	str	r3, [r0, #8]
  104f68:	e5803004 	str	r3, [r0, #4]
  104f6c:	e5803010 	str	r3, [r0, #16]
  104f70:	e5803014 	str	r3, [r0, #20]
  104f74:	e5803018 	str	r3, [r0, #24]
  104f78:	e5803030 	str	r3, [r0, #48]
  104f7c:	e5803034 	str	r3, [r0, #52]
  104f80:	e5803044 	str	r3, [r0, #68]
  104f84:	e3e03000 	mvn	r3, #0	; 0x0
  104f88:	e1c030be 	strh	r3, [r0, #14]
  104f8c:	e3a03001 	mov	r3, #1	; 0x1
  104f90:	e1c030bc 	strh	r3, [r0, #12]
  104f94:	e8bd8030 	ldmia	sp!, {r4, r5, pc}
  104f98:	e1a00004 	mov	r0, r4
  104f9c:	ebffff87 	bl	104dc0 <__sinit>
  104fa0:	eaffffd6 	b	104f00 <__sfp+0x1c>
  104fa4:	e1a00005 	mov	r0, r5
  104fa8:	e3a01004 	mov	r1, #4	; 0x4
  104fac:	ebffffb8 	bl	104e94 <__sfmoreglue>
  104fb0:	e3500000 	cmp	r0, #0	; 0x0
  104fb4:	e5840000 	str	r0, [r4]
  104fb8:	1affffe4 	bne	104f50 <__sfp+0x6c>
  104fbc:	e3a0300c 	mov	r3, #12	; 0xc
  104fc0:	e3a00000 	mov	r0, #0	; 0x0
  104fc4:	e5853000 	str	r3, [r5]
  104fc8:	e8bd8030 	ldmia	sp!, {r4, r5, pc}
  104fcc:	0010c830 	andeqs	ip, r0, r0, lsr r8

00104fd0 <_malloc_trim_r>:
  104fd0:	e92d40f0 	stmdb	sp!, {r4, r5, r6, r7, lr}
  104fd4:	e59f70e4 	ldr	r7, [pc, #228]	; 1050c0 <prog+0x507c>
  104fd8:	e1a04001 	mov	r4, r1
  104fdc:	e1a05000 	mov	r5, r0
  104fe0:	ebffef47 	bl	100d04 <__malloc_lock>
  104fe4:	e5973008 	ldr	r3, [r7, #8]
  104fe8:	e5932004 	ldr	r2, [r3, #4]
  104fec:	e3c26003 	bic	r6, r2, #3	; 0x3
  104ff0:	e0644006 	rsb	r4, r4, r6
  104ff4:	e2844efe 	add	r4, r4, #4064	; 0xfe0
  104ff8:	e284400f 	add	r4, r4, #15	; 0xf
  104ffc:	e1a04624 	mov	r4, r4, lsr #12
  105000:	e2444001 	sub	r4, r4, #1	; 0x1
  105004:	e1a04604 	mov	r4, r4, lsl #12
  105008:	e3540a01 	cmp	r4, #4096	; 0x1000
  10500c:	e3a01000 	mov	r1, #0	; 0x0
  105010:	e1a00005 	mov	r0, r5
  105014:	ba000006 	blt	105034 <_malloc_trim_r+0x64>
  105018:	eb001122 	bl	1094a8 <_sbrk_r>
  10501c:	e5973008 	ldr	r3, [r7, #8]
  105020:	e0863003 	add	r3, r6, r3
  105024:	e1500003 	cmp	r0, r3
  105028:	e2641000 	rsb	r1, r4, #0	; 0x0
  10502c:	e1a00005 	mov	r0, r5
  105030:	0a000002 	beq	105040 <_malloc_trim_r+0x70>
  105034:	ebffef33 	bl	100d08 <__malloc_unlock>
  105038:	e3a00000 	mov	r0, #0	; 0x0
  10503c:	e8bd80f0 	ldmia	sp!, {r4, r5, r6, r7, pc}
  105040:	eb001118 	bl	1094a8 <_sbrk_r>
  105044:	e0643006 	rsb	r3, r4, r6
  105048:	e3700001 	cmn	r0, #1	; 0x1
  10504c:	e3a01000 	mov	r1, #0	; 0x0
  105050:	e59fe06c 	ldr	lr, [pc, #108]	; 1050c4 <prog+0x5080>
  105054:	e383c001 	orr	ip, r3, #1	; 0x1
  105058:	e1a00005 	mov	r0, r5
  10505c:	0a000008 	beq	105084 <_malloc_trim_r+0xb4>
  105060:	e59e3000 	ldr	r3, [lr]
  105064:	e5972008 	ldr	r2, [r7, #8]
  105068:	e0643003 	rsb	r3, r4, r3
  10506c:	e1a00005 	mov	r0, r5
  105070:	e582c004 	str	ip, [r2, #4]
  105074:	e58e3000 	str	r3, [lr]
  105078:	ebffef22 	bl	100d08 <__malloc_unlock>
  10507c:	e3a00001 	mov	r0, #1	; 0x1
  105080:	e8bd80f0 	ldmia	sp!, {r4, r5, r6, r7, pc}
  105084:	eb001107 	bl	1094a8 <_sbrk_r>
  105088:	e5971008 	ldr	r1, [r7, #8]
  10508c:	e1a0e000 	mov	lr, r0
  105090:	e061300e 	rsb	r3, r1, lr
  105094:	e353000f 	cmp	r3, #15	; 0xf
  105098:	e1a00005 	mov	r0, r5
  10509c:	e383c001 	orr	ip, r3, #1	; 0x1
  1050a0:	daffffe3 	ble	105034 <_malloc_trim_r+0x64>
  1050a4:	e59f301c 	ldr	r3, [pc, #28]	; 1050c8 <prog+0x5084>
  1050a8:	e5932000 	ldr	r2, [r3]
  1050ac:	e59f3010 	ldr	r3, [pc, #16]	; 1050c4 <prog+0x5080>
  1050b0:	e062200e 	rsb	r2, r2, lr
  1050b4:	e5832000 	str	r2, [r3]
  1050b8:	e581c004 	str	ip, [r1, #4]
  1050bc:	eaffffdc 	b	105034 <_malloc_trim_r+0x64>
  1050c0:	00200000 	eoreq	r0, r0, r0
  1050c4:	00200b94 	mlaeq	r0, r4, fp, r0
  1050c8:	0020040c 	eoreq	r0, r0, ip, lsl #8

001050cc <_free_r>:
  1050cc:	e92d45f0 	stmdb	sp!, {r4, r5, r6, r7, r8, sl, lr}
  1050d0:	e2514000 	subs	r4, r1, #0	; 0x0
  1050d4:	e1a08000 	mov	r8, r0
  1050d8:	08bd85f0 	ldmeqia	sp!, {r4, r5, r6, r7, r8, sl, pc}
  1050dc:	ebffef08 	bl	100d04 <__malloc_lock>
  1050e0:	e244e008 	sub	lr, r4, #8	; 0x8
  1050e4:	e59e0004 	ldr	r0, [lr, #4]
  1050e8:	e59f726c 	ldr	r7, [pc, #620]	; 10535c <prog+0x5318>
  1050ec:	e3c01001 	bic	r1, r0, #1	; 0x1
  1050f0:	e08ec001 	add	ip, lr, r1
  1050f4:	e5973008 	ldr	r3, [r7, #8]
  1050f8:	e59c2004 	ldr	r2, [ip, #4]
  1050fc:	e15c0003 	cmp	ip, r3
  105100:	e3c25003 	bic	r5, r2, #3	; 0x3
  105104:	e1a0a007 	mov	sl, r7
  105108:	0a000077 	beq	1052ec <_free_r+0x220>
  10510c:	e2106001 	ands	r6, r0, #1	; 0x1
  105110:	e58c5004 	str	r5, [ip, #4]
  105114:	13a00000 	movne	r0, #0	; 0x0
  105118:	0a000018 	beq	105180 <_free_r+0xb4>
  10511c:	e08c3005 	add	r3, ip, r5
  105120:	e5932004 	ldr	r2, [r3, #4]
  105124:	e3120001 	tst	r2, #1	; 0x1
  105128:	0a000007 	beq	10514c <_free_r+0x80>
  10512c:	e3813001 	orr	r3, r1, #1	; 0x1
  105130:	e3500000 	cmp	r0, #0	; 0x0
  105134:	e58e3004 	str	r3, [lr, #4]
  105138:	e781100e 	str	r1, [r1, lr]
  10513c:	0a00001f 	beq	1051c0 <_free_r+0xf4>
  105140:	e1a00008 	mov	r0, r8
  105144:	e8bd45f0 	ldmia	sp!, {r4, r5, r6, r7, r8, sl, lr}
  105148:	eaffeeee 	b	100d08 <__malloc_unlock>
  10514c:	e3500000 	cmp	r0, #0	; 0x0
  105150:	e0811005 	add	r1, r1, r5
  105154:	159c2008 	ldrne	r2, [ip, #8]
  105158:	0a00004a 	beq	105288 <_free_r+0x1bc>
  10515c:	e59c300c 	ldr	r3, [ip, #12]
  105160:	e3500000 	cmp	r0, #0	; 0x0
  105164:	e5832008 	str	r2, [r3, #8]
  105168:	e582300c 	str	r3, [r2, #12]
  10516c:	e3813001 	orr	r3, r1, #1	; 0x1
  105170:	e58e3004 	str	r3, [lr, #4]
  105174:	e781100e 	str	r1, [r1, lr]
  105178:	1afffff0 	bne	105140 <_free_r+0x74>
  10517c:	ea00000f 	b	1051c0 <_free_r+0xf4>
  105180:	e5142008 	ldr	r2, [r4, #-8]
  105184:	e062e00e 	rsb	lr, r2, lr
  105188:	e59e0008 	ldr	r0, [lr, #8]
  10518c:	e2873008 	add	r3, r7, #8	; 0x8
  105190:	e1500003 	cmp	r0, r3
  105194:	159e300c 	ldrne	r3, [lr, #12]
  105198:	15830008 	strne	r0, [r3, #8]
  10519c:	1580300c 	strne	r3, [r0, #12]
  1051a0:	e08c3005 	add	r3, ip, r5
  1051a4:	e0811002 	add	r1, r1, r2
  1051a8:	e5932004 	ldr	r2, [r3, #4]
  1051ac:	03a00001 	moveq	r0, #1	; 0x1
  1051b0:	11a00006 	movne	r0, r6
  1051b4:	e3120001 	tst	r2, #1	; 0x1
  1051b8:	1affffdb 	bne	10512c <_free_r+0x60>
  1051bc:	eaffffe2 	b	10514c <_free_r+0x80>
  1051c0:	e3510c02 	cmp	r1, #512	; 0x200
  1051c4:	3a00003b 	bcc	1052b8 <_free_r+0x1ec>
  1051c8:	e1b024a1 	movs	r2, r1, lsr #9
  1051cc:	01a021a1 	moveq	r2, r1, lsr #3
  1051d0:	01a03182 	moveq	r3, r2, lsl #3
  1051d4:	0a00001a 	beq	105244 <_free_r+0x178>
  1051d8:	e3520004 	cmp	r2, #4	; 0x4
  1051dc:	91a03321 	movls	r3, r1, lsr #6
  1051e0:	92832038 	addls	r2, r3, #56	; 0x38
  1051e4:	91a03182 	movls	r3, r2, lsl #3
  1051e8:	9a000015 	bls	105244 <_free_r+0x178>
  1051ec:	e3520014 	cmp	r2, #20	; 0x14
  1051f0:	9282205b 	addls	r2, r2, #91	; 0x5b
  1051f4:	91a03182 	movls	r3, r2, lsl #3
  1051f8:	9a000011 	bls	105244 <_free_r+0x178>
  1051fc:	e3520054 	cmp	r2, #84	; 0x54
  105200:	91a03621 	movls	r3, r1, lsr #12
  105204:	9283206e 	addls	r2, r3, #110	; 0x6e
  105208:	91a03182 	movls	r3, r2, lsl #3
  10520c:	9a00000c 	bls	105244 <_free_r+0x178>
  105210:	e3520f55 	cmp	r2, #340	; 0x154
  105214:	91a037a1 	movls	r3, r1, lsr #15
  105218:	92832077 	addls	r2, r3, #119	; 0x77
  10521c:	91a03182 	movls	r3, r2, lsl #3
  105220:	9a000007 	bls	105244 <_free_r+0x178>
  105224:	e3a03e55 	mov	r3, #1360	; 0x550
  105228:	e2833004 	add	r3, r3, #4	; 0x4
  10522c:	e1520003 	cmp	r2, r3
  105230:	91a03921 	movls	r3, r1, lsr #18
  105234:	9283207c 	addls	r2, r3, #124	; 0x7c
  105238:	83a0207e 	movhi	r2, #126	; 0x7e
  10523c:	82433f59 	subhi	r3, r3, #356	; 0x164
  105240:	91a03182 	movls	r3, r2, lsl #3
  105244:	e083c00a 	add	ip, r3, sl
  105248:	e59c0008 	ldr	r0, [ip, #8]
  10524c:	e15c0000 	cmp	ip, r0
  105250:	0a00003b 	beq	105344 <_free_r+0x278>
  105254:	e5903004 	ldr	r3, [r0, #4]
  105258:	e3c33003 	bic	r3, r3, #3	; 0x3
  10525c:	e1510003 	cmp	r1, r3
  105260:	2a000002 	bcs	105270 <_free_r+0x1a4>
  105264:	e5900008 	ldr	r0, [r0, #8]
  105268:	e15c0000 	cmp	ip, r0
  10526c:	1afffff8 	bne	105254 <_free_r+0x188>
  105270:	e590c00c 	ldr	ip, [r0, #12]
  105274:	e58ec00c 	str	ip, [lr, #12]
  105278:	e58e0008 	str	r0, [lr, #8]
  10527c:	e580e00c 	str	lr, [r0, #12]
  105280:	e58ce008 	str	lr, [ip, #8]
  105284:	eaffffad 	b	105140 <_free_r+0x74>
  105288:	e59c2008 	ldr	r2, [ip, #8]
  10528c:	e59f30cc 	ldr	r3, [pc, #204]	; 105360 <prog+0x531c>
  105290:	e1520003 	cmp	r2, r3
  105294:	1affffb0 	bne	10515c <_free_r+0x90>
  105298:	e3813001 	orr	r3, r1, #1	; 0x1
  10529c:	e582e00c 	str	lr, [r2, #12]
  1052a0:	e582e008 	str	lr, [r2, #8]
  1052a4:	e781100e 	str	r1, [r1, lr]
  1052a8:	e58e3004 	str	r3, [lr, #4]
  1052ac:	e58e2008 	str	r2, [lr, #8]
  1052b0:	e58e200c 	str	r2, [lr, #12]
  1052b4:	eaffffa1 	b	105140 <_free_r+0x74>
  1052b8:	e1a011a1 	mov	r1, r1, lsr #3
  1052bc:	e5972004 	ldr	r2, [r7, #4]
  1052c0:	e1a00121 	mov	r0, r1, lsr #2
  1052c4:	e3a03001 	mov	r3, #1	; 0x1
  1052c8:	e1822013 	orr	r2, r2, r3, lsl r0
  1052cc:	e08a1181 	add	r1, sl, r1, lsl #3
  1052d0:	e5913008 	ldr	r3, [r1, #8]
  1052d4:	e58e100c 	str	r1, [lr, #12]
  1052d8:	e58e3008 	str	r3, [lr, #8]
  1052dc:	e5872004 	str	r2, [r7, #4]
  1052e0:	e583e00c 	str	lr, [r3, #12]
  1052e4:	e581e008 	str	lr, [r1, #8]
  1052e8:	eaffff94 	b	105140 <_free_r+0x74>
  1052ec:	e3100001 	tst	r0, #1	; 0x1
  1052f0:	e0810005 	add	r0, r1, r5
  1052f4:	1a000006 	bne	105314 <_free_r+0x248>
  1052f8:	e5141008 	ldr	r1, [r4, #-8]
  1052fc:	e061e00e 	rsb	lr, r1, lr
  105300:	e59e200c 	ldr	r2, [lr, #12]
  105304:	e59e3008 	ldr	r3, [lr, #8]
  105308:	e5823008 	str	r3, [r2, #8]
  10530c:	e583200c 	str	r2, [r3, #12]
  105310:	e0800001 	add	r0, r0, r1
  105314:	e59f3048 	ldr	r3, [pc, #72]	; 105364 <prog+0x5320>
  105318:	e5932000 	ldr	r2, [r3]
  10531c:	e3803001 	orr	r3, r0, #1	; 0x1
  105320:	e1500002 	cmp	r0, r2
  105324:	e587e008 	str	lr, [r7, #8]
  105328:	e58e3004 	str	r3, [lr, #4]
  10532c:	3affff83 	bcc	105140 <_free_r+0x74>
  105330:	e59f3030 	ldr	r3, [pc, #48]	; 105368 <prog+0x5324>
  105334:	e1a00008 	mov	r0, r8
  105338:	e5931000 	ldr	r1, [r3]
  10533c:	ebffff23 	bl	104fd0 <_malloc_trim_r>
  105340:	eaffff7e 	b	105140 <_free_r+0x74>
  105344:	e5973004 	ldr	r3, [r7, #4]
  105348:	e1a01122 	mov	r1, r2, lsr #2
  10534c:	e3a02001 	mov	r2, #1	; 0x1
  105350:	e1833112 	orr	r3, r3, r2, lsl r1
  105354:	e5873004 	str	r3, [r7, #4]
  105358:	eaffffc5 	b	105274 <_free_r+0x1a8>
  10535c:	00200000 	eoreq	r0, r0, r0
  105360:	00200008 	eoreq	r0, r0, r8
  105364:	00200408 	eoreq	r0, r0, r8, lsl #8
  105368:	00200b88 	eoreq	r0, r0, r8, lsl #23

0010536c <__sfvwrite>:
  10536c:	e92d4ff0 	stmdb	sp!, {r4, r5, r6, r7, r8, r9, sl, fp, lr}
  105370:	e5913008 	ldr	r3, [r1, #8]
  105374:	e3530000 	cmp	r3, #0	; 0x0
  105378:	e24dd004 	sub	sp, sp, #4	; 0x4
  10537c:	e1a0a001 	mov	sl, r1
  105380:	e1a06000 	mov	r6, r0
  105384:	0a00001c 	beq	1053fc <__sfvwrite+0x90>
  105388:	e1d010bc 	ldrh	r1, [r0, #12]
  10538c:	e3110008 	tst	r1, #8	; 0x8
  105390:	0a0000e8 	beq	105738 <__sfvwrite+0x3cc>
  105394:	e5903010 	ldr	r3, [r0, #16]
  105398:	e3530000 	cmp	r3, #0	; 0x0
  10539c:	0a0000e5 	beq	105738 <__sfvwrite+0x3cc>
  1053a0:	e3110002 	tst	r1, #2	; 0x2
  1053a4:	13a04000 	movne	r4, #0	; 0x0
  1053a8:	e59a8000 	ldr	r8, [sl]
  1053ac:	11a05004 	movne	r5, r4
  1053b0:	0a000018 	beq	105418 <__sfvwrite+0xac>
  1053b4:	e3540000 	cmp	r4, #0	; 0x0
  1053b8:	e1a01005 	mov	r1, r5
  1053bc:	0a000011 	beq	105408 <__sfvwrite+0x9c>
  1053c0:	e3540b01 	cmp	r4, #1024	; 0x400
  1053c4:	31a02004 	movcc	r2, r4
  1053c8:	23a02b01 	movcs	r2, #1024	; 0x400
  1053cc:	e596001c 	ldr	r0, [r6, #28]
  1053d0:	e1a0e00f 	mov	lr, pc
  1053d4:	e596f024 	ldr	pc, [r6, #36]
  1053d8:	e3500000 	cmp	r0, #0	; 0x0
  1053dc:	e0604004 	rsb	r4, r0, r4
  1053e0:	e0855000 	add	r5, r5, r0
  1053e4:	da00005b 	ble	105558 <__sfvwrite+0x1ec>
  1053e8:	e59a3008 	ldr	r3, [sl, #8]
  1053ec:	e0603003 	rsb	r3, r0, r3
  1053f0:	e3530000 	cmp	r3, #0	; 0x0
  1053f4:	e58a3008 	str	r3, [sl, #8]
  1053f8:	1affffed 	bne	1053b4 <__sfvwrite+0x48>
  1053fc:	e3a00000 	mov	r0, #0	; 0x0
  105400:	e28dd004 	add	sp, sp, #4	; 0x4
  105404:	e8bd8ff0 	ldmia	sp!, {r4, r5, r6, r7, r8, r9, sl, fp, pc}
  105408:	e5985000 	ldr	r5, [r8]
  10540c:	e5984004 	ldr	r4, [r8, #4]
  105410:	e2888008 	add	r8, r8, #8	; 0x8
  105414:	eaffffe6 	b	1053b4 <__sfvwrite+0x48>
  105418:	e2112001 	ands	r2, r1, #1	; 0x1
  10541c:	13a07000 	movne	r7, #0	; 0x0
  105420:	11a09007 	movne	r9, r7
  105424:	158d7000 	strne	r7, [sp]
  105428:	11a0b007 	movne	fp, r7
  10542c:	0a00005b 	beq	1055a0 <__sfvwrite+0x234>
  105430:	e3570000 	cmp	r7, #0	; 0x0
  105434:	0a000025 	beq	1054d0 <__sfvwrite+0x164>
  105438:	e59d3000 	ldr	r3, [sp]
  10543c:	e3530000 	cmp	r3, #0	; 0x0
  105440:	0a000049 	beq	10556c <__sfvwrite+0x200>
  105444:	e596c014 	ldr	ip, [r6, #20]
  105448:	e5961008 	ldr	r1, [r6, #8]
  10544c:	e5960000 	ldr	r0, [r6]
  105450:	e5962010 	ldr	r2, [r6, #16]
  105454:	e157000b 	cmp	r7, fp
  105458:	31a05007 	movcc	r5, r7
  10545c:	21a0500b 	movcs	r5, fp
  105460:	e08c4001 	add	r4, ip, r1
  105464:	e1500002 	cmp	r0, r2
  105468:	93a03000 	movls	r3, #0	; 0x0
  10546c:	83a03001 	movhi	r3, #1	; 0x1
  105470:	e1550004 	cmp	r5, r4
  105474:	d3a03000 	movle	r3, #0	; 0x0
  105478:	e3530000 	cmp	r3, #0	; 0x0
  10547c:	1a00002b 	bne	105530 <__sfvwrite+0x1c4>
  105480:	e155000c 	cmp	r5, ip
  105484:	ba000017 	blt	1054e8 <__sfvwrite+0x17c>
  105488:	e1a0200c 	mov	r2, ip
  10548c:	e596001c 	ldr	r0, [r6, #28]
  105490:	e1a01009 	mov	r1, r9
  105494:	e1a0e00f 	mov	lr, pc
  105498:	e596f024 	ldr	pc, [r6, #36]
  10549c:	e2504000 	subs	r4, r0, #0	; 0x0
  1054a0:	da00002c 	ble	105558 <__sfvwrite+0x1ec>
  1054a4:	e05bb004 	subs	fp, fp, r4
  1054a8:	0a00001a 	beq	105518 <__sfvwrite+0x1ac>
  1054ac:	e59a3008 	ldr	r3, [sl, #8]
  1054b0:	e0643003 	rsb	r3, r4, r3
  1054b4:	e3530000 	cmp	r3, #0	; 0x0
  1054b8:	e58a3008 	str	r3, [sl, #8]
  1054bc:	0affffce 	beq	1053fc <__sfvwrite+0x90>
  1054c0:	e0647007 	rsb	r7, r4, r7
  1054c4:	e3570000 	cmp	r7, #0	; 0x0
  1054c8:	e0899004 	add	r9, r9, r4
  1054cc:	1affffd9 	bne	105438 <__sfvwrite+0xcc>
  1054d0:	e5989000 	ldr	r9, [r8]
  1054d4:	e5987004 	ldr	r7, [r8, #4]
  1054d8:	e3a03000 	mov	r3, #0	; 0x0
  1054dc:	e2888008 	add	r8, r8, #8	; 0x8
  1054e0:	e58d3000 	str	r3, [sp]
  1054e4:	eaffffd1 	b	105430 <__sfvwrite+0xc4>
  1054e8:	e1a02005 	mov	r2, r5
  1054ec:	e1a01009 	mov	r1, r9
  1054f0:	eb00019f 	bl	105b74 <memmove>
  1054f4:	e5963008 	ldr	r3, [r6, #8]
  1054f8:	e5962000 	ldr	r2, [r6]
  1054fc:	e1a04005 	mov	r4, r5
  105500:	e0653003 	rsb	r3, r5, r3
  105504:	e0822005 	add	r2, r2, r5
  105508:	e05bb004 	subs	fp, fp, r4
  10550c:	e5863008 	str	r3, [r6, #8]
  105510:	e5862000 	str	r2, [r6]
  105514:	1affffe4 	bne	1054ac <__sfvwrite+0x140>
  105518:	e1a00006 	mov	r0, r6
  10551c:	ebfffdd4 	bl	104c74 <fflush>
  105520:	e3500000 	cmp	r0, #0	; 0x0
  105524:	1a00000b 	bne	105558 <__sfvwrite+0x1ec>
  105528:	e58d0000 	str	r0, [sp]
  10552c:	eaffffde 	b	1054ac <__sfvwrite+0x140>
  105530:	e1a01009 	mov	r1, r9
  105534:	e1a02004 	mov	r2, r4
  105538:	eb00018d 	bl	105b74 <memmove>
  10553c:	e5963000 	ldr	r3, [r6]
  105540:	e0833004 	add	r3, r3, r4
  105544:	e5863000 	str	r3, [r6]
  105548:	e1a00006 	mov	r0, r6
  10554c:	ebfffdc8 	bl	104c74 <fflush>
  105550:	e3500000 	cmp	r0, #0	; 0x0
  105554:	0affffd2 	beq	1054a4 <__sfvwrite+0x138>
  105558:	e1d630bc 	ldrh	r3, [r6, #12]
  10555c:	e3e00000 	mvn	r0, #0	; 0x0
  105560:	e3833040 	orr	r3, r3, #64	; 0x40
  105564:	e1c630bc 	strh	r3, [r6, #12]
  105568:	eaffffa4 	b	105400 <__sfvwrite+0x94>
  10556c:	e1a00009 	mov	r0, r9
  105570:	e3a0100a 	mov	r1, #10	; 0xa
  105574:	e1a02007 	mov	r2, r7
  105578:	eb00013c 	bl	105a70 <memchr>
  10557c:	e3500000 	cmp	r0, #0	; 0x0
  105580:	10693000 	rsbne	r3, r9, r0
  105584:	1283b001 	addne	fp, r3, #1	; 0x1
  105588:	03a03001 	moveq	r3, #1	; 0x1
  10558c:	13a03001 	movne	r3, #1	; 0x1
  105590:	0287b001 	addeq	fp, r7, #1	; 0x1
  105594:	158d3000 	strne	r3, [sp]
  105598:	058d3000 	streq	r3, [sp]
  10559c:	eaffffa8 	b	105444 <__sfvwrite+0xd8>
  1055a0:	e1a07002 	mov	r7, r2
  1055a4:	e1a09002 	mov	r9, r2
  1055a8:	e3570000 	cmp	r7, #0	; 0x0
  1055ac:	0a000020 	beq	105634 <__sfvwrite+0x2c8>
  1055b0:	e3110c02 	tst	r1, #512	; 0x200
  1055b4:	e5964008 	ldr	r4, [r6, #8]
  1055b8:	0a000021 	beq	105644 <__sfvwrite+0x2d8>
  1055bc:	e1570004 	cmp	r7, r4
  1055c0:	e1a02004 	mov	r2, r4
  1055c4:	9a000001 	bls	1055d0 <__sfvwrite+0x264>
  1055c8:	e3110080 	tst	r1, #128	; 0x80
  1055cc:	1a000047 	bne	1056f0 <__sfvwrite+0x384>
  1055d0:	e1570002 	cmp	r7, r2
  1055d4:	31a02007 	movcc	r2, r7
  1055d8:	e5960000 	ldr	r0, [r6]
  1055dc:	e1a01009 	mov	r1, r9
  1055e0:	31a04007 	movcc	r4, r7
  1055e4:	eb000162 	bl	105b74 <memmove>
  1055e8:	e5963008 	ldr	r3, [r6, #8]
  1055ec:	e5962000 	ldr	r2, [r6]
  1055f0:	e0643003 	rsb	r3, r4, r3
  1055f4:	e0822004 	add	r2, r2, r4
  1055f8:	e5863008 	str	r3, [r6, #8]
  1055fc:	e5862000 	str	r2, [r6]
  105600:	e1a05007 	mov	r5, r7
  105604:	e1a00007 	mov	r0, r7
  105608:	e1a04007 	mov	r4, r7
  10560c:	e59a3008 	ldr	r3, [sl, #8]
  105610:	e0643003 	rsb	r3, r4, r3
  105614:	e3530000 	cmp	r3, #0	; 0x0
  105618:	e58a3008 	str	r3, [sl, #8]
  10561c:	0affff76 	beq	1053fc <__sfvwrite+0x90>
  105620:	e0657007 	rsb	r7, r5, r7
  105624:	e3570000 	cmp	r7, #0	; 0x0
  105628:	e1d610bc 	ldrh	r1, [r6, #12]
  10562c:	e0899000 	add	r9, r9, r0
  105630:	1affffde 	bne	1055b0 <__sfvwrite+0x244>
  105634:	e5989000 	ldr	r9, [r8]
  105638:	e5987004 	ldr	r7, [r8, #4]
  10563c:	e2888008 	add	r8, r8, #8	; 0x8
  105640:	eaffffd8 	b	1055a8 <__sfvwrite+0x23c>
  105644:	e5960000 	ldr	r0, [r6]
  105648:	e5963010 	ldr	r3, [r6, #16]
  10564c:	e1500003 	cmp	r0, r3
  105650:	81570004 	cmphi	r7, r4
  105654:	e1a05004 	mov	r5, r4
  105658:	8a000018 	bhi	1056c0 <__sfvwrite+0x354>
  10565c:	e5962014 	ldr	r2, [r6, #20]
  105660:	e1570002 	cmp	r7, r2
  105664:	3a000008 	bcc	10568c <__sfvwrite+0x320>
  105668:	e596001c 	ldr	r0, [r6, #28]
  10566c:	e1a01009 	mov	r1, r9
  105670:	e1a0e00f 	mov	lr, pc
  105674:	e596f024 	ldr	pc, [r6, #36]
  105678:	e2504000 	subs	r4, r0, #0	; 0x0
  10567c:	daffffb5 	ble	105558 <__sfvwrite+0x1ec>
  105680:	e1a05004 	mov	r5, r4
  105684:	e1a00004 	mov	r0, r4
  105688:	eaffffdf 	b	10560c <__sfvwrite+0x2a0>
  10568c:	e1a02007 	mov	r2, r7
  105690:	e1a01009 	mov	r1, r9
  105694:	eb000136 	bl	105b74 <memmove>
  105698:	e5963008 	ldr	r3, [r6, #8]
  10569c:	e5962000 	ldr	r2, [r6]
  1056a0:	e0673003 	rsb	r3, r7, r3
  1056a4:	e0822007 	add	r2, r2, r7
  1056a8:	e1a04007 	mov	r4, r7
  1056ac:	e1a05007 	mov	r5, r7
  1056b0:	e1a00007 	mov	r0, r7
  1056b4:	e5863008 	str	r3, [r6, #8]
  1056b8:	e5862000 	str	r2, [r6]
  1056bc:	eaffffd2 	b	10560c <__sfvwrite+0x2a0>
  1056c0:	e1a01009 	mov	r1, r9
  1056c4:	e1a02004 	mov	r2, r4
  1056c8:	eb000129 	bl	105b74 <memmove>
  1056cc:	e5963000 	ldr	r3, [r6]
  1056d0:	e0833004 	add	r3, r3, r4
  1056d4:	e5863000 	str	r3, [r6]
  1056d8:	e1a00006 	mov	r0, r6
  1056dc:	ebfffd64 	bl	104c74 <fflush>
  1056e0:	e3500000 	cmp	r0, #0	; 0x0
  1056e4:	e1a00004 	mov	r0, r4
  1056e8:	0affffc7 	beq	10560c <__sfvwrite+0x2a0>
  1056ec:	eaffff99 	b	105558 <__sfvwrite+0x1ec>
  1056f0:	e5961010 	ldr	r1, [r6, #16]
  1056f4:	e5963000 	ldr	r3, [r6]
  1056f8:	e59fb060 	ldr	fp, [pc, #96]	; 105760 <prog+0x571c>
  1056fc:	e0614003 	rsb	r4, r1, r3
  105700:	e0875004 	add	r5, r7, r4
  105704:	e59b0000 	ldr	r0, [fp]
  105708:	e1a02005 	mov	r2, r5
  10570c:	eb000443 	bl	106820 <_realloc_r>
  105710:	e3500000 	cmp	r0, #0	; 0x0
  105714:	0a00000d 	beq	105750 <__sfvwrite+0x3e4>
  105718:	e0803004 	add	r3, r0, r4
  10571c:	e1a02007 	mov	r2, r7
  105720:	e1a04007 	mov	r4, r7
  105724:	e5863000 	str	r3, [r6]
  105728:	e5865014 	str	r5, [r6, #20]
  10572c:	e5860010 	str	r0, [r6, #16]
  105730:	e5867008 	str	r7, [r6, #8]
  105734:	eaffffa5 	b	1055d0 <__sfvwrite+0x264>
  105738:	ebfff77b 	bl	10352c <__swsetup>
  10573c:	e3500000 	cmp	r0, #0	; 0x0
  105740:	13e00000 	mvnne	r0, #0	; 0x0
  105744:	1affff2d 	bne	105400 <__sfvwrite+0x94>
  105748:	e1d610bc 	ldrh	r1, [r6, #12]
  10574c:	eaffff13 	b	1053a0 <__sfvwrite+0x34>
  105750:	e59b0000 	ldr	r0, [fp]
  105754:	e5961010 	ldr	r1, [r6, #16]
  105758:	ebfffe5b 	bl	1050cc <_free_r>
  10575c:	eaffff7d 	b	105558 <__sfvwrite+0x1ec>
  105760:	00200410 	eoreq	r0, r0, r0, lsl r4

00105764 <_fwalk_reent>:
  105764:	e92d47f0 	stmdb	sp!, {r4, r5, r6, r7, r8, r9, sl, lr}
  105768:	e1a08000 	mov	r8, r0
  10576c:	e1a0a001 	mov	sl, r1
  105770:	ebfffd8e 	bl	104db0 <__sfp_lock_acquire>
  105774:	e2987e2e 	adds	r7, r8, #736	; 0x2e0
  105778:	01a09007 	moveq	r9, r7
  10577c:	0a000017 	beq	1057e0 <_fwalk_reent+0x7c>
  105780:	e3a09000 	mov	r9, #0	; 0x0
  105784:	e5973004 	ldr	r3, [r7, #4]
  105788:	e2536001 	subs	r6, r3, #1	; 0x1
  10578c:	e5974008 	ldr	r4, [r7, #8]
  105790:	4a00000f 	bmi	1057d4 <_fwalk_reent+0x70>
  105794:	e3a05000 	mov	r5, #0	; 0x0
  105798:	e1d430fc 	ldrsh	r3, [r4, #12]
  10579c:	e3530000 	cmp	r3, #0	; 0x0
  1057a0:	0a000007 	beq	1057c4 <_fwalk_reent+0x60>
  1057a4:	e1d430fe 	ldrsh	r3, [r4, #14]
  1057a8:	e3730001 	cmn	r3, #1	; 0x1
  1057ac:	e1a01004 	mov	r1, r4
  1057b0:	e1a00008 	mov	r0, r8
  1057b4:	0a000002 	beq	1057c4 <_fwalk_reent+0x60>
  1057b8:	e1a0e00f 	mov	lr, pc
  1057bc:	e12fff1a 	bx	sl
  1057c0:	e1899000 	orr	r9, r9, r0
  1057c4:	e1560005 	cmp	r6, r5
  1057c8:	e284405c 	add	r4, r4, #92	; 0x5c
  1057cc:	e2855001 	add	r5, r5, #1	; 0x1
  1057d0:	1afffff0 	bne	105798 <_fwalk_reent+0x34>
  1057d4:	e5977000 	ldr	r7, [r7]
  1057d8:	e3570000 	cmp	r7, #0	; 0x0
  1057dc:	1affffe8 	bne	105784 <_fwalk_reent+0x20>
  1057e0:	ebfffd73 	bl	104db4 <__sfp_lock_release>
  1057e4:	e1a00009 	mov	r0, r9
  1057e8:	e8bd87f0 	ldmia	sp!, {r4, r5, r6, r7, r8, r9, sl, pc}

001057ec <_fwalk>:
  1057ec:	e92d45f0 	stmdb	sp!, {r4, r5, r6, r7, r8, sl, lr}
  1057f0:	e1a04000 	mov	r4, r0
  1057f4:	e1a08001 	mov	r8, r1
  1057f8:	ebfffd6c 	bl	104db0 <__sfp_lock_acquire>
  1057fc:	e2947e2e 	adds	r7, r4, #736	; 0x2e0
  105800:	01a0a007 	moveq	sl, r7
  105804:	0a000016 	beq	105864 <_fwalk+0x78>
  105808:	e3a0a000 	mov	sl, #0	; 0x0
  10580c:	e5973004 	ldr	r3, [r7, #4]
  105810:	e2536001 	subs	r6, r3, #1	; 0x1
  105814:	e5974008 	ldr	r4, [r7, #8]
  105818:	4a00000e 	bmi	105858 <_fwalk+0x6c>
  10581c:	e3a05000 	mov	r5, #0	; 0x0
  105820:	e1d430fc 	ldrsh	r3, [r4, #12]
  105824:	e3530000 	cmp	r3, #0	; 0x0
  105828:	0a000006 	beq	105848 <_fwalk+0x5c>
  10582c:	e1d430fe 	ldrsh	r3, [r4, #14]
  105830:	e3730001 	cmn	r3, #1	; 0x1
  105834:	e1a00004 	mov	r0, r4
  105838:	0a000002 	beq	105848 <_fwalk+0x5c>
  10583c:	e1a0e00f 	mov	lr, pc
  105840:	e12fff18 	bx	r8
  105844:	e18aa000 	orr	sl, sl, r0
  105848:	e1560005 	cmp	r6, r5
  10584c:	e284405c 	add	r4, r4, #92	; 0x5c
  105850:	e2855001 	add	r5, r5, #1	; 0x1
  105854:	1afffff1 	bne	105820 <_fwalk+0x34>
  105858:	e5977000 	ldr	r7, [r7]
  10585c:	e3570000 	cmp	r7, #0	; 0x0
  105860:	1affffe9 	bne	10580c <_fwalk+0x20>
  105864:	ebfffd52 	bl	104db4 <__sfp_lock_release>
  105868:	e1a0000a 	mov	r0, sl
  10586c:	e8bd85f0 	ldmia	sp!, {r4, r5, r6, r7, r8, sl, pc}

00105870 <__locale_charset>:
  105870:	e59f3004 	ldr	r3, [pc, #4]	; 10587c <prog+0x5838>
  105874:	e5930000 	ldr	r0, [r3]
  105878:	e12fff1e 	bx	lr
  10587c:	0010c864 	andeqs	ip, r0, r4, ror #16

00105880 <_localeconv_r>:
  105880:	e59f0000 	ldr	r0, [pc, #0]	; 105888 <prog+0x5844>
  105884:	e12fff1e 	bx	lr
  105888:	0010c834 	andeqs	ip, r0, r4, lsr r8

0010588c <localeconv>:
  10588c:	e59f3004 	ldr	r3, [pc, #4]	; 105898 <prog+0x5854>
  105890:	e5930000 	ldr	r0, [r3]
  105894:	eafffff9 	b	105880 <_localeconv_r>
  105898:	00200410 	eoreq	r0, r0, r0, lsl r4

0010589c <_setlocale_r>:
  10589c:	e59f3054 	ldr	r3, [pc, #84]	; 1058f8 <prog+0x58b4>
  1058a0:	e92d4070 	stmdb	sp!, {r4, r5, r6, lr}
  1058a4:	e2524000 	subs	r4, r2, #0	; 0x0
  1058a8:	e1a05000 	mov	r5, r0
  1058ac:	e1a06001 	mov	r6, r1
  1058b0:	e1a00004 	mov	r0, r4
  1058b4:	e1a01003 	mov	r1, r3
  1058b8:	0a000007 	beq	1058dc <_setlocale_r+0x40>
  1058bc:	eb0005c0 	bl	106fc4 <strcmp>
  1058c0:	e3500000 	cmp	r0, #0	; 0x0
  1058c4:	e59f1030 	ldr	r1, [pc, #48]	; 1058fc <prog+0x58b8>
  1058c8:	e1a00004 	mov	r0, r4
  1058cc:	1a000004 	bne	1058e4 <_setlocale_r+0x48>
  1058d0:	e5854034 	str	r4, [r5, #52]
  1058d4:	e5856030 	str	r6, [r5, #48]
  1058d8:	e59f3018 	ldr	r3, [pc, #24]	; 1058f8 <prog+0x58b4>
  1058dc:	e1a00003 	mov	r0, r3
  1058e0:	e8bd8070 	ldmia	sp!, {r4, r5, r6, pc}
  1058e4:	eb0005b6 	bl	106fc4 <strcmp>
  1058e8:	e3500000 	cmp	r0, #0	; 0x0
  1058ec:	e3a03000 	mov	r3, #0	; 0x0
  1058f0:	0afffff6 	beq	1058d0 <_setlocale_r+0x34>
  1058f4:	eafffff8 	b	1058dc <_setlocale_r+0x40>
  1058f8:	0010cf8c 	andeqs	ip, r0, ip, lsl #31
  1058fc:	0010cdec 	andeqs	ip, r0, ip, ror #27

00105900 <setlocale>:
  105900:	e1a02001 	mov	r2, r1
  105904:	e59f100c 	ldr	r1, [pc, #12]	; 105918 <prog+0x58d4>
  105908:	e1a03000 	mov	r3, r0
  10590c:	e5910000 	ldr	r0, [r1]
  105910:	e1a01003 	mov	r1, r3
  105914:	eaffffe0 	b	10589c <_setlocale_r>
  105918:	00200410 	eoreq	r0, r0, r0, lsl r4

0010591c <__smakebuf>:
  10591c:	e92d4070 	stmdb	sp!, {r4, r5, r6, lr}
  105920:	e1d030bc 	ldrh	r3, [r0, #12]
  105924:	e3130002 	tst	r3, #2	; 0x2
  105928:	12802043 	addne	r2, r0, #67	; 0x43
  10592c:	13a03001 	movne	r3, #1	; 0x1
  105930:	e24dd03c 	sub	sp, sp, #60	; 0x3c
  105934:	e1a04000 	mov	r4, r0
  105938:	15803014 	strne	r3, [r0, #20]
  10593c:	15802010 	strne	r2, [r0, #16]
  105940:	15802000 	strne	r2, [r0]
  105944:	1a000025 	bne	1059e0 <__smakebuf+0xc4>
  105948:	e1d010fe 	ldrsh	r1, [r0, #14]
  10594c:	e3510000 	cmp	r1, #0	; 0x0
  105950:	ba000024 	blt	1059e8 <__smakebuf+0xcc>
  105954:	e59f5108 	ldr	r5, [pc, #264]	; 105a64 <prog+0x5a20>
  105958:	e1a0200d 	mov	r2, sp
  10595c:	e5950000 	ldr	r0, [r5]
  105960:	eb000ecc 	bl	109498 <_fstat_r>
  105964:	e3500000 	cmp	r0, #0	; 0x0
  105968:	b1d430bc 	ldrlth	r3, [r4, #12]
  10596c:	ba00001e 	blt	1059ec <__smakebuf+0xd0>
  105970:	e59d3004 	ldr	r3, [sp, #4]
  105974:	e2033a0f 	and	r3, r3, #61440	; 0xf000
  105978:	e3530a02 	cmp	r3, #8192	; 0x2000
  10597c:	13a06000 	movne	r6, #0	; 0x0
  105980:	03a06001 	moveq	r6, #1	; 0x1
  105984:	e3530902 	cmp	r3, #32768	; 0x8000
  105988:	0a000022 	beq	105a18 <__smakebuf+0xfc>
  10598c:	e1d430bc 	ldrh	r3, [r4, #12]
  105990:	e3833b02 	orr	r3, r3, #2048	; 0x800
  105994:	e1c430bc 	strh	r3, [r4, #12]
  105998:	e5950000 	ldr	r0, [r5]
  10599c:	e3a01b01 	mov	r1, #1024	; 0x400
  1059a0:	ebffeaad 	bl	10045c <_malloc_r>
  1059a4:	e3500000 	cmp	r0, #0	; 0x0
  1059a8:	0a000024 	beq	105a40 <__smakebuf+0x124>
  1059ac:	e59f30b0 	ldr	r3, [pc, #176]	; 105a64 <prog+0x5a20>
  1059b0:	e1d420bc 	ldrh	r2, [r4, #12]
  1059b4:	e5931000 	ldr	r1, [r3]
  1059b8:	e59f30a8 	ldr	r3, [pc, #168]	; 105a68 <prog+0x5a24>
  1059bc:	e3822080 	orr	r2, r2, #128	; 0x80
  1059c0:	e581303c 	str	r3, [r1, #60]
  1059c4:	e3560000 	cmp	r6, #0	; 0x0
  1059c8:	e3a03b01 	mov	r3, #1024	; 0x400
  1059cc:	e1c420bc 	strh	r2, [r4, #12]
  1059d0:	e5840010 	str	r0, [r4, #16]
  1059d4:	e5843014 	str	r3, [r4, #20]
  1059d8:	e5840000 	str	r0, [r4]
  1059dc:	1a000006 	bne	1059fc <__smakebuf+0xe0>
  1059e0:	e28dd03c 	add	sp, sp, #60	; 0x3c
  1059e4:	e8bd8070 	ldmia	sp!, {r4, r5, r6, pc}
  1059e8:	e59f5074 	ldr	r5, [pc, #116]	; 105a64 <prog+0x5a20>
  1059ec:	e3833b02 	orr	r3, r3, #2048	; 0x800
  1059f0:	e3a06000 	mov	r6, #0	; 0x0
  1059f4:	e1c430bc 	strh	r3, [r4, #12]
  1059f8:	eaffffe6 	b	105998 <__smakebuf+0x7c>
  1059fc:	e1d400fe 	ldrsh	r0, [r4, #14]
  105a00:	eb0005b6 	bl	1070e0 <isatty>
  105a04:	e3500000 	cmp	r0, #0	; 0x0
  105a08:	11d430bc 	ldrneh	r3, [r4, #12]
  105a0c:	13833001 	orrne	r3, r3, #1	; 0x1
  105a10:	11c430bc 	strneh	r3, [r4, #12]
  105a14:	eafffff1 	b	1059e0 <__smakebuf+0xc4>
  105a18:	e5942028 	ldr	r2, [r4, #40]
  105a1c:	e59f3048 	ldr	r3, [pc, #72]	; 105a6c <prog+0x5a28>
  105a20:	e1520003 	cmp	r2, r3
  105a24:	1affffd8 	bne	10598c <__smakebuf+0x70>
  105a28:	e1d430bc 	ldrh	r3, [r4, #12]
  105a2c:	e3a02b01 	mov	r2, #1024	; 0x400
  105a30:	e3833b01 	orr	r3, r3, #1024	; 0x400
  105a34:	e1c430bc 	strh	r3, [r4, #12]
  105a38:	e584204c 	str	r2, [r4, #76]
  105a3c:	eaffffd5 	b	105998 <__smakebuf+0x7c>
  105a40:	e1d430bc 	ldrh	r3, [r4, #12]
  105a44:	e2841043 	add	r1, r4, #67	; 0x43
  105a48:	e3833002 	orr	r3, r3, #2	; 0x2
  105a4c:	e3a02001 	mov	r2, #1	; 0x1
  105a50:	e5842014 	str	r2, [r4, #20]
  105a54:	e1c430bc 	strh	r3, [r4, #12]
  105a58:	e5841010 	str	r1, [r4, #16]
  105a5c:	e5841000 	str	r1, [r4]
  105a60:	eaffffde 	b	1059e0 <__smakebuf+0xc4>
  105a64:	00200410 	eoreq	r0, r0, r0, lsl r4
  105a68:	00104e78 	andeqs	r4, r0, r8, ror lr
  105a6c:	00106ed8 	ldreqsb	r6, [r0], -r8

00105a70 <memchr>:
  105a70:	e1a0c002 	mov	ip, r2
  105a74:	e35c0003 	cmp	ip, #3	; 0x3
  105a78:	e52de004 	str	lr, [sp, #-4]!
  105a7c:	e1a02000 	mov	r2, r0
  105a80:	e20110ff 	and	r1, r1, #255	; 0xff
  105a84:	9a000001 	bls	105a90 <memchr+0x20>
  105a88:	e2103003 	ands	r3, r0, #3	; 0x3
  105a8c:	0a00000e 	beq	105acc <memchr+0x5c>
  105a90:	e25c2001 	subs	r2, ip, #1	; 0x1
  105a94:	3a00000a 	bcc	105ac4 <memchr+0x54>
  105a98:	e5d03000 	ldrb	r3, [r0]
  105a9c:	e1510003 	cmp	r1, r3
  105aa0:	049df004 	ldreq	pc, [sp], #4
  105aa4:	e3a0c000 	mov	ip, #0	; 0x0
  105aa8:	ea000002 	b	105ab8 <memchr+0x48>
  105aac:	e5f03001 	ldrb	r3, [r0, #1]!
  105ab0:	e1510003 	cmp	r1, r3
  105ab4:	0a00002b 	beq	105b68 <memchr+0xf8>
  105ab8:	e152000c 	cmp	r2, ip
  105abc:	e28cc001 	add	ip, ip, #1	; 0x1
  105ac0:	1afffff9 	bne	105aac <memchr+0x3c>
  105ac4:	e3a00000 	mov	r0, #0	; 0x0
  105ac8:	e49df004 	ldr	pc, [sp], #4
  105acc:	e1a0e003 	mov	lr, r3
  105ad0:	e2833001 	add	r3, r3, #1	; 0x1
  105ad4:	e3530004 	cmp	r3, #4	; 0x4
  105ad8:	e081e40e 	add	lr, r1, lr, lsl #8
  105adc:	1afffffb 	bne	105ad0 <memchr+0x60>
  105ae0:	e1a00002 	mov	r0, r2
  105ae4:	e5902000 	ldr	r2, [r0]
  105ae8:	e022200e 	eor	r2, r2, lr
  105aec:	e28234ff 	add	r3, r2, #-16777216	; 0xff000000
  105af0:	e2433801 	sub	r3, r3, #65536	; 0x10000
  105af4:	e2433c01 	sub	r3, r3, #256	; 0x100
  105af8:	e2433001 	sub	r3, r3, #1	; 0x1
  105afc:	e3c3347f 	bic	r3, r3, #2130706432	; 0x7f000000
  105b00:	e3c3387f 	bic	r3, r3, #8323072	; 0x7f0000
  105b04:	e3c33c7f 	bic	r3, r3, #32512	; 0x7f00
  105b08:	e3c3307f 	bic	r3, r3, #127	; 0x7f
  105b0c:	e1d32002 	bics	r2, r3, r2
  105b10:	e24cc004 	sub	ip, ip, #4	; 0x4
  105b14:	0a00000f 	beq	105b58 <memchr+0xe8>
  105b18:	e5d03000 	ldrb	r3, [r0]
  105b1c:	e1510003 	cmp	r1, r3
  105b20:	e1a02000 	mov	r2, r0
  105b24:	0a000010 	beq	105b6c <memchr+0xfc>
  105b28:	e5d03001 	ldrb	r3, [r0, #1]
  105b2c:	e1510003 	cmp	r1, r3
  105b30:	e2802001 	add	r2, r0, #1	; 0x1
  105b34:	0a00000c 	beq	105b6c <memchr+0xfc>
  105b38:	e5d03002 	ldrb	r3, [r0, #2]
  105b3c:	e1510003 	cmp	r1, r3
  105b40:	e2802002 	add	r2, r0, #2	; 0x2
  105b44:	0a000008 	beq	105b6c <memchr+0xfc>
  105b48:	e5d03003 	ldrb	r3, [r0, #3]
  105b4c:	e1510003 	cmp	r1, r3
  105b50:	e2802003 	add	r2, r0, #3	; 0x3
  105b54:	0a000004 	beq	105b6c <memchr+0xfc>
  105b58:	e35c0003 	cmp	ip, #3	; 0x3
  105b5c:	e2800004 	add	r0, r0, #4	; 0x4
  105b60:	8affffdf 	bhi	105ae4 <memchr+0x74>
  105b64:	eaffffc9 	b	105a90 <memchr+0x20>
  105b68:	e49df004 	ldr	pc, [sp], #4
  105b6c:	e1a00002 	mov	r0, r2
  105b70:	e49df004 	ldr	pc, [sp], #4

00105b74 <memmove>:
  105b74:	e1500001 	cmp	r0, r1
  105b78:	e92d4010 	stmdb	sp!, {r4, lr}
  105b7c:	e1a0c000 	mov	ip, r0
  105b80:	e1a04001 	mov	r4, r1
  105b84:	e1a0e002 	mov	lr, r2
  105b88:	9a000011 	bls	105bd4 <memmove+0x60>
  105b8c:	e0813002 	add	r3, r1, r2
  105b90:	e1500003 	cmp	r0, r3
  105b94:	2a00000e 	bcs	105bd4 <memmove+0x60>
  105b98:	e2522001 	subs	r2, r2, #1	; 0x1
  105b9c:	38bd8010 	ldmccia	sp!, {r4, pc}
  105ba0:	e1a01003 	mov	r1, r3
  105ba4:	e0623003 	rsb	r3, r2, r3
  105ba8:	e243c001 	sub	ip, r3, #1	; 0x1
  105bac:	e080200e 	add	r2, r0, lr
  105bb0:	e5713001 	ldrb	r3, [r1, #-1]!
  105bb4:	e15c0001 	cmp	ip, r1
  105bb8:	e5623001 	strb	r3, [r2, #-1]!
  105bbc:	08bd8010 	ldmeqia	sp!, {r4, pc}
  105bc0:	e5713001 	ldrb	r3, [r1, #-1]!
  105bc4:	e15c0001 	cmp	ip, r1
  105bc8:	e5623001 	strb	r3, [r2, #-1]!
  105bcc:	1afffff7 	bne	105bb0 <memmove+0x3c>
  105bd0:	e8bd8010 	ldmia	sp!, {r4, pc}
  105bd4:	e35e000f 	cmp	lr, #15	; 0xf
  105bd8:	8a000008 	bhi	105c00 <memmove+0x8c>
  105bdc:	e35e0000 	cmp	lr, #0	; 0x0
  105be0:	08bd8010 	ldmeqia	sp!, {r4, pc}
  105be4:	e3a02000 	mov	r2, #0	; 0x0
  105be8:	e4d13001 	ldrb	r3, [r1], #1
  105bec:	e7c2300c 	strb	r3, [r2, ip]
  105bf0:	e2822001 	add	r2, r2, #1	; 0x1
  105bf4:	e152000e 	cmp	r2, lr
  105bf8:	1afffffa 	bne	105be8 <memmove+0x74>
  105bfc:	e8bd8010 	ldmia	sp!, {r4, pc}
  105c00:	e1843000 	orr	r3, r4, r0
  105c04:	e3130003 	tst	r3, #3	; 0x3
  105c08:	1afffff3 	bne	105bdc <memmove+0x68>
  105c0c:	e1a01004 	mov	r1, r4
  105c10:	e1a0c000 	mov	ip, r0
  105c14:	e5913000 	ldr	r3, [r1]
  105c18:	e58c3000 	str	r3, [ip]
  105c1c:	e5912004 	ldr	r2, [r1, #4]
  105c20:	e58c2004 	str	r2, [ip, #4]
  105c24:	e5913008 	ldr	r3, [r1, #8]
  105c28:	e58c3008 	str	r3, [ip, #8]
  105c2c:	e24ee010 	sub	lr, lr, #16	; 0x10
  105c30:	e591300c 	ldr	r3, [r1, #12]
  105c34:	e35e000f 	cmp	lr, #15	; 0xf
  105c38:	e58c300c 	str	r3, [ip, #12]
  105c3c:	e2811010 	add	r1, r1, #16	; 0x10
  105c40:	e28cc010 	add	ip, ip, #16	; 0x10
  105c44:	8afffff2 	bhi	105c14 <memmove+0xa0>
  105c48:	e35e0003 	cmp	lr, #3	; 0x3
  105c4c:	9affffe2 	bls	105bdc <memmove+0x68>
  105c50:	e24ee004 	sub	lr, lr, #4	; 0x4
  105c54:	e4913004 	ldr	r3, [r1], #4
  105c58:	e35e0003 	cmp	lr, #3	; 0x3
  105c5c:	e48c3004 	str	r3, [ip], #4
  105c60:	8afffffa 	bhi	105c50 <memmove+0xdc>
  105c64:	e35e0000 	cmp	lr, #0	; 0x0
  105c68:	1affffdd 	bne	105be4 <memmove+0x70>
  105c6c:	e8bd8010 	ldmia	sp!, {r4, pc}

00105c70 <_Bfree>:
  105c70:	e251c000 	subs	ip, r1, #0	; 0x0
  105c74:	1590104c 	ldrne	r1, [r0, #76]
  105c78:	159c2004 	ldrne	r2, [ip, #4]
  105c7c:	17913102 	ldrne	r3, [r1, r2, lsl #2]
  105c80:	158c3000 	strne	r3, [ip]
  105c84:	1781c102 	strne	ip, [r1, r2, lsl #2]
  105c88:	e12fff1e 	bx	lr

00105c8c <_hi0bits>:
  105c8c:	e1a03820 	mov	r3, r0, lsr #16
  105c90:	e1a03803 	mov	r3, r3, lsl #16
  105c94:	e3530000 	cmp	r3, #0	; 0x0
  105c98:	01a00800 	moveq	r0, r0, lsl #16
  105c9c:	13a03000 	movne	r3, #0	; 0x0
  105ca0:	03a03010 	moveq	r3, #16	; 0x10
  105ca4:	e31004ff 	tst	r0, #-16777216	; 0xff000000
  105ca8:	01a00400 	moveq	r0, r0, lsl #8
  105cac:	02833008 	addeq	r3, r3, #8	; 0x8
  105cb0:	e310020f 	tst	r0, #-268435456	; 0xf0000000
  105cb4:	01a00200 	moveq	r0, r0, lsl #4
  105cb8:	02833004 	addeq	r3, r3, #4	; 0x4
  105cbc:	e3100103 	tst	r0, #-1073741824	; 0xc0000000
  105cc0:	01a00100 	moveq	r0, r0, lsl #2
  105cc4:	02833002 	addeq	r3, r3, #2	; 0x2
  105cc8:	e3500000 	cmp	r0, #0	; 0x0
  105ccc:	ba000002 	blt	105cdc <_hi0bits+0x50>
  105cd0:	e3100101 	tst	r0, #1073741824	; 0x40000000
  105cd4:	03a03020 	moveq	r3, #32	; 0x20
  105cd8:	12833001 	addne	r3, r3, #1	; 0x1
  105cdc:	e1a00003 	mov	r0, r3
  105ce0:	e12fff1e 	bx	lr

00105ce4 <_lo0bits>:
  105ce4:	e5902000 	ldr	r2, [r0]
  105ce8:	e1a01000 	mov	r1, r0
  105cec:	e2120007 	ands	r0, r2, #7	; 0x7
  105cf0:	0a00000a 	beq	105d20 <_lo0bits+0x3c>
  105cf4:	e3120001 	tst	r2, #1	; 0x1
  105cf8:	13a00000 	movne	r0, #0	; 0x0
  105cfc:	112fff1e 	bxne	lr
  105d00:	e3120002 	tst	r2, #2	; 0x2
  105d04:	11a030a2 	movne	r3, r2, lsr #1
  105d08:	01a03122 	moveq	r3, r2, lsr #2
  105d0c:	13a00001 	movne	r0, #1	; 0x1
  105d10:	03a00002 	moveq	r0, #2	; 0x2
  105d14:	15813000 	strne	r3, [r1]
  105d18:	05813000 	streq	r3, [r1]
  105d1c:	e12fff1e 	bx	lr
  105d20:	e1a03802 	mov	r3, r2, lsl #16
  105d24:	e1a03823 	mov	r3, r3, lsr #16
  105d28:	e3530000 	cmp	r3, #0	; 0x0
  105d2c:	01a02822 	moveq	r2, r2, lsr #16
  105d30:	03a00010 	moveq	r0, #16	; 0x10
  105d34:	e31200ff 	tst	r2, #255	; 0xff
  105d38:	01a02422 	moveq	r2, r2, lsr #8
  105d3c:	02800008 	addeq	r0, r0, #8	; 0x8
  105d40:	e312000f 	tst	r2, #15	; 0xf
  105d44:	01a02222 	moveq	r2, r2, lsr #4
  105d48:	02800004 	addeq	r0, r0, #4	; 0x4
  105d4c:	e3120003 	tst	r2, #3	; 0x3
  105d50:	01a02122 	moveq	r2, r2, lsr #2
  105d54:	02800002 	addeq	r0, r0, #2	; 0x2
  105d58:	e3120001 	tst	r2, #1	; 0x1
  105d5c:	1a000003 	bne	105d70 <_lo0bits+0x8c>
  105d60:	e1b020a2 	movs	r2, r2, lsr #1
  105d64:	03a00020 	moveq	r0, #32	; 0x20
  105d68:	012fff1e 	bxeq	lr
  105d6c:	e2800001 	add	r0, r0, #1	; 0x1
  105d70:	e5812000 	str	r2, [r1]
  105d74:	e12fff1e 	bx	lr

00105d78 <__mcmp>:
  105d78:	e5903010 	ldr	r3, [r0, #16]
  105d7c:	e5912010 	ldr	r2, [r1, #16]
  105d80:	e52de004 	str	lr, [sp, #-4]!
  105d84:	e053e002 	subs	lr, r3, r2
  105d88:	1a00000c 	bne	105dc0 <__mcmp+0x48>
  105d8c:	e1a02102 	mov	r2, r2, lsl #2
  105d90:	e2800014 	add	r0, r0, #20	; 0x14
  105d94:	e2823014 	add	r3, r2, #20	; 0x14
  105d98:	e0811003 	add	r1, r1, r3
  105d9c:	e080c002 	add	ip, r0, r2
  105da0:	e51c2004 	ldr	r2, [ip, #-4]
  105da4:	e5113004 	ldr	r3, [r1, #-4]
  105da8:	e1520003 	cmp	r2, r3
  105dac:	e24cc004 	sub	ip, ip, #4	; 0x4
  105db0:	e2411004 	sub	r1, r1, #4	; 0x4
  105db4:	1a000003 	bne	105dc8 <__mcmp+0x50>
  105db8:	e150000c 	cmp	r0, ip
  105dbc:	3afffff7 	bcc	105da0 <__mcmp+0x28>
  105dc0:	e1a0000e 	mov	r0, lr
  105dc4:	e49df004 	ldr	pc, [sp], #4
  105dc8:	33e0e000 	mvncc	lr, #0	; 0x0
  105dcc:	23a0e001 	movcs	lr, #1	; 0x1
  105dd0:	e1a0000e 	mov	r0, lr
  105dd4:	e49df004 	ldr	pc, [sp], #4

00105dd8 <_ulp>:
  105dd8:	e3c00102 	bic	r0, r0, #-2147483648	; 0x80000000
  105ddc:	e1a00a20 	mov	r0, r0, lsr #20
  105de0:	e1a00a00 	mov	r0, r0, lsl #20
  105de4:	e240250d 	sub	r2, r0, #54525952	; 0x3400000
  105de8:	e3520000 	cmp	r2, #0	; 0x0
  105dec:	e2623000 	rsb	r3, r2, #0	; 0x0
  105df0:	e1a0ca43 	mov	ip, r3, asr #20
  105df4:	c1a00002 	movgt	r0, r2
  105df8:	c3a01000 	movgt	r1, #0	; 0x0
  105dfc:	c12fff1e 	bxgt	lr
  105e00:	e35c0013 	cmp	ip, #19	; 0x13
  105e04:	e24c3014 	sub	r3, ip, #20	; 0x14
  105e08:	d3a03702 	movle	r3, #524288	; 0x80000
  105e0c:	d1a00c53 	movle	r0, r3, asr ip
  105e10:	d3a01000 	movle	r1, #0	; 0x0
  105e14:	d12fff1e 	bxle	lr
  105e18:	e353001e 	cmp	r3, #30	; 0x1e
  105e1c:	e263201f 	rsb	r2, r3, #31	; 0x1f
  105e20:	e3a03001 	mov	r3, #1	; 0x1
  105e24:	d3a03001 	movle	r3, #1	; 0x1
  105e28:	d1a03213 	movle	r3, r3, lsl r2
  105e2c:	e3a00000 	mov	r0, #0	; 0x0
  105e30:	e1a01003 	mov	r1, r3
  105e34:	e12fff1e 	bx	lr

00105e38 <_b2d>:
  105e38:	e5903010 	ldr	r3, [r0, #16]
  105e3c:	e92d40f0 	stmdb	sp!, {r4, r5, r6, r7, lr}
  105e40:	e2806014 	add	r6, r0, #20	; 0x14
  105e44:	e0863103 	add	r3, r6, r3, lsl #2
  105e48:	e5137004 	ldr	r7, [r3, #-4]
  105e4c:	e1a00007 	mov	r0, r7
  105e50:	e1a04001 	mov	r4, r1
  105e54:	e2435004 	sub	r5, r3, #4	; 0x4
  105e58:	ebffff8b 	bl	105c8c <_hi0bits>
  105e5c:	e2603020 	rsb	r3, r0, #32	; 0x20
  105e60:	e350000a 	cmp	r0, #10	; 0xa
  105e64:	e1a02000 	mov	r2, r0
  105e68:	e5843000 	str	r3, [r4]
  105e6c:	ca00000a 	bgt	105e9c <_b2d+0x64>
  105e70:	e1560005 	cmp	r6, r5
  105e74:	35153004 	ldrcc	r3, [r5, #-4]
  105e78:	e260c00b 	rsb	ip, r0, #11	; 0xb
  105e7c:	31a0ec33 	movcc	lr, r3, lsr ip
  105e80:	e1a03c37 	mov	r3, r7, lsr ip
  105e84:	23a0e000 	movcs	lr, #0	; 0x0
  105e88:	e2822015 	add	r2, r2, #21	; 0x15
  105e8c:	e18e1217 	orr	r1, lr, r7, lsl r2
  105e90:	e38305ff 	orr	r0, r3, #1069547520	; 0x3fc00000
  105e94:	e3800603 	orr	r0, r0, #3145728	; 0x300000
  105e98:	e8bd80f0 	ldmia	sp!, {r4, r5, r6, r7, pc}
  105e9c:	e1560005 	cmp	r6, r5
  105ea0:	23a0e000 	movcs	lr, #0	; 0x0
  105ea4:	3535e004 	ldrcc	lr, [r5, #-4]!
  105ea8:	e250200b 	subs	r2, r0, #11	; 0xb
  105eac:	1a000003 	bne	105ec0 <_b2d+0x88>
  105eb0:	e38705ff 	orr	r0, r7, #1069547520	; 0x3fc00000
  105eb4:	e3800603 	orr	r0, r0, #3145728	; 0x300000
  105eb8:	e1a0100e 	mov	r1, lr
  105ebc:	e8bd80f0 	ldmia	sp!, {r4, r5, r6, r7, pc}
  105ec0:	e1550006 	cmp	r5, r6
  105ec4:	85153004 	ldrhi	r3, [r5, #-4]
  105ec8:	e262c020 	rsb	ip, r2, #32	; 0x20
  105ecc:	81a04c33 	movhi	r4, r3, lsr ip
  105ed0:	e1a03217 	mov	r3, r7, lsl r2
  105ed4:	e38335ff 	orr	r3, r3, #1069547520	; 0x3fc00000
  105ed8:	93a04000 	movls	r4, #0	; 0x0
  105edc:	e3833603 	orr	r3, r3, #3145728	; 0x300000
  105ee0:	e1830c3e 	orr	r0, r3, lr, lsr ip
  105ee4:	e184121e 	orr	r1, r4, lr, lsl r2
  105ee8:	e8bd80f0 	ldmia	sp!, {r4, r5, r6, r7, pc}

00105eec <_ratio>:
  105eec:	e92d43f0 	stmdb	sp!, {r4, r5, r6, r7, r8, r9, lr}
  105ef0:	e24dd008 	sub	sp, sp, #8	; 0x8
  105ef4:	e1a04001 	mov	r4, r1
  105ef8:	e28d1004 	add	r1, sp, #4	; 0x4
  105efc:	e1a05000 	mov	r5, r0
  105f00:	ebffffcc 	bl	105e38 <_b2d>
  105f04:	e1a06000 	mov	r6, r0
  105f08:	e1a07001 	mov	r7, r1
  105f0c:	e1a00004 	mov	r0, r4
  105f10:	e1a0100d 	mov	r1, sp
  105f14:	ebffffc7 	bl	105e38 <_b2d>
  105f18:	e5942010 	ldr	r2, [r4, #16]
  105f1c:	e1a09001 	mov	r9, r1
  105f20:	e5951010 	ldr	r1, [r5, #16]
  105f24:	e59d3004 	ldr	r3, [sp, #4]
  105f28:	e0621001 	rsb	r1, r2, r1
  105f2c:	e59d2000 	ldr	r2, [sp]
  105f30:	e0623003 	rsb	r3, r2, r3
  105f34:	e0833281 	add	r3, r3, r1, lsl #5
  105f38:	e1a08000 	mov	r8, r0
  105f3c:	e3530000 	cmp	r3, #0	; 0x0
  105f40:	c0866a03 	addgt	r6, r6, r3, lsl #20
  105f44:	d0488a03 	suble	r8, r8, r3, lsl #20
  105f48:	e1a00006 	mov	r0, r6
  105f4c:	e1a01007 	mov	r1, r7
  105f50:	e1a02008 	mov	r2, r8
  105f54:	e1a03009 	mov	r3, r9
  105f58:	eb000886 	bl	108178 <__divdf3>
  105f5c:	e28dd008 	add	sp, sp, #8	; 0x8
  105f60:	e8bd83f0 	ldmia	sp!, {r4, r5, r6, r7, r8, r9, pc}

00105f64 <_mprec_log10>:
  105f64:	e3500017 	cmp	r0, #23	; 0x17
  105f68:	e92d4010 	stmdb	sp!, {r4, lr}
  105f6c:	e1a04000 	mov	r4, r0
  105f70:	c3a005ff 	movgt	r0, #1069547520	; 0x3fc00000
  105f74:	c2800603 	addgt	r0, r0, #3145728	; 0x300000
  105f78:	c3a01000 	movgt	r1, #0	; 0x0
  105f7c:	ca000003 	bgt	105f90 <_mprec_log10+0x2c>
  105f80:	e59f3024 	ldr	r3, [pc, #36]	; 105fac <prog+0x5f68>
  105f84:	e0833184 	add	r3, r3, r4, lsl #3
  105f88:	e8930003 	ldmia	r3, {r0, r1}
  105f8c:	e8bd8010 	ldmia	sp!, {r4, pc}
  105f90:	e3a02101 	mov	r2, #1073741824	; 0x40000000
  105f94:	e2822709 	add	r2, r2, #2359296	; 0x240000
  105f98:	e3a03000 	mov	r3, #0	; 0x0
  105f9c:	eb000791 	bl	107de8 <__muldf3>
  105fa0:	e2544001 	subs	r4, r4, #1	; 0x1
  105fa4:	1afffff9 	bne	105f90 <_mprec_log10+0x2c>
  105fa8:	e8bd8010 	ldmia	sp!, {r4, pc}
  105fac:	0010c868 	andeqs	ip, r0, r8, ror #16

00105fb0 <_Balloc>:
  105fb0:	e590c04c 	ldr	ip, [r0, #76]
  105fb4:	e35c0000 	cmp	ip, #0	; 0x0
  105fb8:	e92d4070 	stmdb	sp!, {r4, r5, r6, lr}
  105fbc:	e3a02010 	mov	r2, #16	; 0x10
  105fc0:	e1a06001 	mov	r6, r1
  105fc4:	e1a04000 	mov	r4, r0
  105fc8:	e3a01004 	mov	r1, #4	; 0x4
  105fcc:	0a00000c 	beq	106004 <_Balloc+0x54>
  105fd0:	e79c5106 	ldr	r5, [ip, r6, lsl #2]
  105fd4:	e3550000 	cmp	r5, #0	; 0x0
  105fd8:	15953000 	ldrne	r3, [r5]
  105fdc:	e3a02001 	mov	r2, #1	; 0x1
  105fe0:	e1a00004 	mov	r0, r4
  105fe4:	e1a01002 	mov	r1, r2
  105fe8:	178c3106 	strne	r3, [ip, r6, lsl #2]
  105fec:	0a00000b 	beq	106020 <_Balloc+0x70>
  105ff0:	e3a03000 	mov	r3, #0	; 0x0
  105ff4:	e585300c 	str	r3, [r5, #12]
  105ff8:	e5853010 	str	r3, [r5, #16]
  105ffc:	e1a00005 	mov	r0, r5
  106000:	e8bd8070 	ldmia	sp!, {r4, r5, r6, pc}
  106004:	eb0005e4 	bl	10779c <_calloc_r>
  106008:	e3500000 	cmp	r0, #0	; 0x0
  10600c:	e1a0c000 	mov	ip, r0
  106010:	e1a05000 	mov	r5, r0
  106014:	e584004c 	str	r0, [r4, #76]
  106018:	1affffec 	bne	105fd0 <_Balloc+0x20>
  10601c:	eafffff6 	b	105ffc <_Balloc+0x4c>
  106020:	e1a04612 	mov	r4, r2, lsl r6
  106024:	e1a02104 	mov	r2, r4, lsl #2
  106028:	e2822014 	add	r2, r2, #20	; 0x14
  10602c:	eb0005da 	bl	10779c <_calloc_r>
  106030:	e3500000 	cmp	r0, #0	; 0x0
  106034:	0afffff0 	beq	105ffc <_Balloc+0x4c>
  106038:	e1a05000 	mov	r5, r0
  10603c:	e5806004 	str	r6, [r0, #4]
  106040:	e5804008 	str	r4, [r0, #8]
  106044:	eaffffe9 	b	105ff0 <_Balloc+0x40>

00106048 <_d2b>:
  106048:	e92d47f0 	stmdb	sp!, {r4, r5, r6, r7, r8, r9, sl, lr}
  10604c:	e1a04001 	mov	r4, r1
  106050:	e24dd008 	sub	sp, sp, #8	; 0x8
  106054:	e3a01001 	mov	r1, #1	; 0x1
  106058:	e1a05002 	mov	r5, r2
  10605c:	e1a0a003 	mov	sl, r3
  106060:	e59d9028 	ldr	r9, [sp, #40]
  106064:	ebffffd1 	bl	105fb0 <_Balloc>
  106068:	e3c42102 	bic	r2, r4, #-2147483648	; 0x80000000
  10606c:	e3c434ff 	bic	r3, r4, #-16777216	; 0xff000000
  106070:	e3c3360f 	bic	r3, r3, #15728640	; 0xf00000
  106074:	e1b07a22 	movs	r7, r2, lsr #20
  106078:	e58d3000 	str	r3, [sp]
  10607c:	13833601 	orrne	r3, r3, #1048576	; 0x100000
  106080:	158d3000 	strne	r3, [sp]
  106084:	e3550000 	cmp	r5, #0	; 0x0
  106088:	e1a06000 	mov	r6, r0
  10608c:	e2808014 	add	r8, r0, #20	; 0x14
  106090:	0a000022 	beq	106120 <_d2b+0xd8>
  106094:	e28d0008 	add	r0, sp, #8	; 0x8
  106098:	e5205004 	str	r5, [r0, #-4]!
  10609c:	ebffff10 	bl	105ce4 <_lo0bits>
  1060a0:	e3500000 	cmp	r0, #0	; 0x0
  1060a4:	0a000030 	beq	10616c <_d2b+0x124>
  1060a8:	e89d000c 	ldmia	sp, {r2, r3}
  1060ac:	e2601020 	rsb	r1, r0, #32	; 0x20
  1060b0:	e1833112 	orr	r3, r3, r2, lsl r1
  1060b4:	e5863014 	str	r3, [r6, #20]
  1060b8:	e59d3000 	ldr	r3, [sp]
  1060bc:	e1a03033 	mov	r3, r3, lsr r0
  1060c0:	e58d3000 	str	r3, [sp]
  1060c4:	e3530000 	cmp	r3, #0	; 0x0
  1060c8:	03a04001 	moveq	r4, #1	; 0x1
  1060cc:	13a04002 	movne	r4, #2	; 0x2
  1060d0:	e3570000 	cmp	r7, #0	; 0x0
  1060d4:	e5883004 	str	r3, [r8, #4]
  1060d8:	10803007 	addne	r3, r0, r7
  1060dc:	12433e43 	subne	r3, r3, #1072	; 0x430
  1060e0:	12433003 	subne	r3, r3, #3	; 0x3
  1060e4:	12602035 	rsbne	r2, r0, #53	; 0x35
